    .file    "LLVMDialectModule"
    .section    .rodata.cst32,"aM",@progbits,32
    .p2align    5, 0x0                          # -- Begin function mm
.LCPI0_0:
    .long    0                               # 0x0
    .long    1                               # 0x1
    .long    2                               # 0x2
    .long    3                               # 0x3
    .long    4                               # 0x4
    .long    5                               # 0x5
    .long    6                               # 0x6
    .long    7                               # 0x7
.LCPI0_1:
    .long    8                               # 0x8
    .long    9                               # 0x9
    .long    10                              # 0xa
    .long    11                              # 0xb
    .long    12                              # 0xc
    .long    13                              # 0xd
    .long    14                              # 0xe
    .long    15                              # 0xf
.LCPI0_2:
    .long    16                              # 0x10
    .long    17                              # 0x11
    .long    18                              # 0x12
    .long    19                              # 0x13
    .long    20                              # 0x14
    .long    21                              # 0x15
    .long    22                              # 0x16
    .long    23                              # 0x17
.LCPI0_3:
    .long    24                              # 0x18
    .long    25                              # 0x19
    .long    26                              # 0x1a
    .long    27                              # 0x1b
    .long    28                              # 0x1c
    .long    29                              # 0x1d
    .long    30                              # 0x1e
    .long    31                              # 0x1f
.LCPI0_4:
    .long    56                              # 0x38
    .long    57                              # 0x39
    .long    58                              # 0x3a
    .long    59                              # 0x3b
    .long    60                              # 0x3c
    .long    61                              # 0x3d
    .long    62                              # 0x3e
    .long    63                              # 0x3f
.LCPI0_5:
    .long    48                              # 0x30
    .long    49                              # 0x31
    .long    50                              # 0x32
    .long    51                              # 0x33
    .long    52                              # 0x34
    .long    53                              # 0x35
    .long    54                              # 0x36
    .long    55                              # 0x37
.LCPI0_6:
    .long    32                              # 0x20
    .long    33                              # 0x21
    .long    34                              # 0x22
    .long    35                              # 0x23
    .long    36                              # 0x24
    .long    37                              # 0x25
    .long    38                              # 0x26
    .long    39                              # 0x27
.LCPI0_7:
    .long    40                              # 0x28
    .long    41                              # 0x29
    .long    42                              # 0x2a
    .long    43                              # 0x2b
    .long    44                              # 0x2c
    .long    45                              # 0x2d
    .long    46                              # 0x2e
    .long    47                              # 0x2f
.LCPI0_8:
    .byte    1                               # 0x1
    .byte    1                               # 0x1
    .byte    1                               # 0x1
    .byte    1                               # 0x1
    .byte    1                               # 0x1
    .byte    1                               # 0x1
    .byte    1                               # 0x1
    .byte    1                               # 0x1
    .zero    1
    .zero    1
    .zero    1
    .zero    1
    .zero    1
    .zero    1
    .zero    1
    .zero    1
    .byte    1                               # 0x1
    .byte    1                               # 0x1
    .byte    1                               # 0x1
    .byte    1                               # 0x1
    .byte    1                               # 0x1
    .byte    1                               # 0x1
    .byte    1                               # 0x1
    .byte    1                               # 0x1
    .zero    1
    .zero    1
    .zero    1
    .zero    1
    .zero    1
    .zero    1
    .zero    1
    .zero    1
.LCPI0_9:
    .byte    2                               # 0x2
    .byte    2                               # 0x2
    .byte    2                               # 0x2
    .byte    2                               # 0x2
    .byte    2                               # 0x2
    .byte    2                               # 0x2
    .byte    2                               # 0x2
    .byte    2                               # 0x2
    .zero    1
    .zero    1
    .zero    1
    .zero    1
    .zero    1
    .zero    1
    .zero    1
    .zero    1
    .byte    2                               # 0x2
    .byte    2                               # 0x2
    .byte    2                               # 0x2
    .byte    2                               # 0x2
    .byte    2                               # 0x2
    .byte    2                               # 0x2
    .byte    2                               # 0x2
    .byte    2                               # 0x2
    .zero    1
    .zero    1
    .zero    1
    .zero    1
    .zero    1
    .zero    1
    .zero    1
    .zero    1
.LCPI0_10:
    .byte    3                               # 0x3
    .byte    3                               # 0x3
    .byte    3                               # 0x3
    .byte    3                               # 0x3
    .byte    3                               # 0x3
    .byte    3                               # 0x3
    .byte    3                               # 0x3
    .byte    3                               # 0x3
    .zero    1
    .zero    1
    .zero    1
    .zero    1
    .zero    1
    .zero    1
    .zero    1
    .zero    1
    .byte    3                               # 0x3
    .byte    3                               # 0x3
    .byte    3                               # 0x3
    .byte    3                               # 0x3
    .byte    3                               # 0x3
    .byte    3                               # 0x3
    .byte    3                               # 0x3
    .byte    3                               # 0x3
    .zero    1
    .zero    1
    .zero    1
    .zero    1
    .zero    1
    .zero    1
    .zero    1
    .zero    1
.LCPI0_11:
    .byte    4                               # 0x4
    .byte    4                               # 0x4
    .byte    4                               # 0x4
    .byte    4                               # 0x4
    .byte    4                               # 0x4
    .byte    4                               # 0x4
    .byte    4                               # 0x4
    .byte    4                               # 0x4
    .zero    1
    .zero    1
    .zero    1
    .zero    1
    .zero    1
    .zero    1
    .zero    1
    .zero    1
    .byte    4                               # 0x4
    .byte    4                               # 0x4
    .byte    4                               # 0x4
    .byte    4                               # 0x4
    .byte    4                               # 0x4
    .byte    4                               # 0x4
    .byte    4                               # 0x4
    .byte    4                               # 0x4
    .zero    1
    .zero    1
    .zero    1
    .zero    1
    .zero    1
    .zero    1
    .zero    1
    .zero    1
.LCPI0_12:
    .byte    5                               # 0x5
    .byte    5                               # 0x5
    .byte    5                               # 0x5
    .byte    5                               # 0x5
    .byte    5                               # 0x5
    .byte    5                               # 0x5
    .byte    5                               # 0x5
    .byte    5                               # 0x5
    .zero    1
    .zero    1
    .zero    1
    .zero    1
    .zero    1
    .zero    1
    .zero    1
    .zero    1
    .byte    5                               # 0x5
    .byte    5                               # 0x5
    .byte    5                               # 0x5
    .byte    5                               # 0x5
    .byte    5                               # 0x5
    .byte    5                               # 0x5
    .byte    5                               # 0x5
    .byte    5                               # 0x5
    .zero    1
    .zero    1
    .zero    1
    .zero    1
    .zero    1
    .zero    1
    .zero    1
    .zero    1
.LCPI0_13:
    .byte    6                               # 0x6
    .byte    6                               # 0x6
    .byte    6                               # 0x6
    .byte    6                               # 0x6
    .byte    6                               # 0x6
    .byte    6                               # 0x6
    .byte    6                               # 0x6
    .byte    6                               # 0x6
    .zero    1
    .zero    1
    .zero    1
    .zero    1
    .zero    1
    .zero    1
    .zero    1
    .zero    1
    .byte    6                               # 0x6
    .byte    6                               # 0x6
    .byte    6                               # 0x6
    .byte    6                               # 0x6
    .byte    6                               # 0x6
    .byte    6                               # 0x6
    .byte    6                               # 0x6
    .byte    6                               # 0x6
    .zero    1
    .zero    1
    .zero    1
    .zero    1
    .zero    1
    .zero    1
    .zero    1
    .zero    1
.LCPI0_14:
    .byte    7                               # 0x7
    .byte    7                               # 0x7
    .byte    7                               # 0x7
    .byte    7                               # 0x7
    .byte    7                               # 0x7
    .byte    7                               # 0x7
    .byte    7                               # 0x7
    .byte    7                               # 0x7
    .zero    1
    .zero    1
    .zero    1
    .zero    1
    .zero    1
    .zero    1
    .zero    1
    .zero    1
    .byte    7                               # 0x7
    .byte    7                               # 0x7
    .byte    7                               # 0x7
    .byte    7                               # 0x7
    .byte    7                               # 0x7
    .byte    7                               # 0x7
    .byte    7                               # 0x7
    .byte    7                               # 0x7
    .zero    1
    .zero    1
    .zero    1
    .zero    1
    .zero    1
    .zero    1
    .zero    1
    .zero    1
.LCPI0_15:
    .byte    8                               # 0x8
    .byte    8                               # 0x8
    .byte    8                               # 0x8
    .byte    8                               # 0x8
    .byte    8                               # 0x8
    .byte    8                               # 0x8
    .byte    8                               # 0x8
    .byte    8                               # 0x8
    .zero    1
    .zero    1
    .zero    1
    .zero    1
    .zero    1
    .zero    1
    .zero    1
    .zero    1
    .byte    8                               # 0x8
    .byte    8                               # 0x8
    .byte    8                               # 0x8
    .byte    8                               # 0x8
    .byte    8                               # 0x8
    .byte    8                               # 0x8
    .byte    8                               # 0x8
    .byte    8                               # 0x8
    .zero    1
    .zero    1
    .zero    1
    .zero    1
    .zero    1
    .zero    1
    .zero    1
    .zero    1
.LCPI0_16:
    .byte    9                               # 0x9
    .byte    9                               # 0x9
    .byte    9                               # 0x9
    .byte    9                               # 0x9
    .byte    9                               # 0x9
    .byte    9                               # 0x9
    .byte    9                               # 0x9
    .byte    9                               # 0x9
    .zero    1
    .zero    1
    .zero    1
    .zero    1
    .zero    1
    .zero    1
    .zero    1
    .zero    1
    .byte    9                               # 0x9
    .byte    9                               # 0x9
    .byte    9                               # 0x9
    .byte    9                               # 0x9
    .byte    9                               # 0x9
    .byte    9                               # 0x9
    .byte    9                               # 0x9
    .byte    9                               # 0x9
    .zero    1
    .zero    1
    .zero    1
    .zero    1
    .zero    1
    .zero    1
    .zero    1
    .zero    1
.LCPI0_17:
    .byte    10                              # 0xa
    .byte    10                              # 0xa
    .byte    10                              # 0xa
    .byte    10                              # 0xa
    .byte    10                              # 0xa
    .byte    10                              # 0xa
    .byte    10                              # 0xa
    .byte    10                              # 0xa
    .zero    1
    .zero    1
    .zero    1
    .zero    1
    .zero    1
    .zero    1
    .zero    1
    .zero    1
    .byte    10                              # 0xa
    .byte    10                              # 0xa
    .byte    10                              # 0xa
    .byte    10                              # 0xa
    .byte    10                              # 0xa
    .byte    10                              # 0xa
    .byte    10                              # 0xa
    .byte    10                              # 0xa
    .zero    1
    .zero    1
    .zero    1
    .zero    1
    .zero    1
    .zero    1
    .zero    1
    .zero    1
.LCPI0_18:
    .byte    11                              # 0xb
    .byte    11                              # 0xb
    .byte    11                              # 0xb
    .byte    11                              # 0xb
    .byte    11                              # 0xb
    .byte    11                              # 0xb
    .byte    11                              # 0xb
    .byte    11                              # 0xb
    .zero    1
    .zero    1
    .zero    1
    .zero    1
    .zero    1
    .zero    1
    .zero    1
    .zero    1
    .byte    11                              # 0xb
    .byte    11                              # 0xb
    .byte    11                              # 0xb
    .byte    11                              # 0xb
    .byte    11                              # 0xb
    .byte    11                              # 0xb
    .byte    11                              # 0xb
    .byte    11                              # 0xb
    .zero    1
    .zero    1
    .zero    1
    .zero    1
    .zero    1
    .zero    1
    .zero    1
    .zero    1
.LCPI0_19:
    .byte    12                              # 0xc
    .byte    12                              # 0xc
    .byte    12                              # 0xc
    .byte    12                              # 0xc
    .byte    12                              # 0xc
    .byte    12                              # 0xc
    .byte    12                              # 0xc
    .byte    12                              # 0xc
    .zero    1
    .zero    1
    .zero    1
    .zero    1
    .zero    1
    .zero    1
    .zero    1
    .zero    1
    .byte    12                              # 0xc
    .byte    12                              # 0xc
    .byte    12                              # 0xc
    .byte    12                              # 0xc
    .byte    12                              # 0xc
    .byte    12                              # 0xc
    .byte    12                              # 0xc
    .byte    12                              # 0xc
    .zero    1
    .zero    1
    .zero    1
    .zero    1
    .zero    1
    .zero    1
    .zero    1
    .zero    1
.LCPI0_20:
    .byte    13                              # 0xd
    .byte    13                              # 0xd
    .byte    13                              # 0xd
    .byte    13                              # 0xd
    .byte    13                              # 0xd
    .byte    13                              # 0xd
    .byte    13                              # 0xd
    .byte    13                              # 0xd
    .zero    1
    .zero    1
    .zero    1
    .zero    1
    .zero    1
    .zero    1
    .zero    1
    .zero    1
    .byte    13                              # 0xd
    .byte    13                              # 0xd
    .byte    13                              # 0xd
    .byte    13                              # 0xd
    .byte    13                              # 0xd
    .byte    13                              # 0xd
    .byte    13                              # 0xd
    .byte    13                              # 0xd
    .zero    1
    .zero    1
    .zero    1
    .zero    1
    .zero    1
    .zero    1
    .zero    1
    .zero    1
.LCPI0_21:
    .byte    14                              # 0xe
    .byte    14                              # 0xe
    .byte    14                              # 0xe
    .byte    14                              # 0xe
    .byte    14                              # 0xe
    .byte    14                              # 0xe
    .byte    14                              # 0xe
    .byte    14                              # 0xe
    .zero    1
    .zero    1
    .zero    1
    .zero    1
    .zero    1
    .zero    1
    .zero    1
    .zero    1
    .byte    14                              # 0xe
    .byte    14                              # 0xe
    .byte    14                              # 0xe
    .byte    14                              # 0xe
    .byte    14                              # 0xe
    .byte    14                              # 0xe
    .byte    14                              # 0xe
    .byte    14                              # 0xe
    .zero    1
    .zero    1
    .zero    1
    .zero    1
    .zero    1
    .zero    1
    .zero    1
    .zero    1
.LCPI0_22:
    .byte    15                              # 0xf
    .byte    15                              # 0xf
    .byte    15                              # 0xf
    .byte    15                              # 0xf
    .byte    15                              # 0xf
    .byte    15                              # 0xf
    .byte    15                              # 0xf
    .byte    15                              # 0xf
    .zero    1
    .zero    1
    .zero    1
    .zero    1
    .zero    1
    .zero    1
    .zero    1
    .zero    1
    .byte    15                              # 0xf
    .byte    15                              # 0xf
    .byte    15                              # 0xf
    .byte    15                              # 0xf
    .byte    15                              # 0xf
    .byte    15                              # 0xf
    .byte    15                              # 0xf
    .byte    15                              # 0xf
    .zero    1
    .zero    1
    .zero    1
    .zero    1
    .zero    1
    .zero    1
    .zero    1
    .zero    1
.LCPI0_23:
    .zero    1
    .zero    1
    .zero    1
    .zero    1
    .zero    1
    .zero    1
    .zero    1
    .zero    1
    .zero    1
    .zero    1
    .zero    1
    .zero    1
    .zero    1
    .zero    1
    .zero    1
    .zero    1
    .byte    1                               # 0x1
    .byte    1                               # 0x1
    .byte    1                               # 0x1
    .byte    1                               # 0x1
    .byte    1                               # 0x1
    .byte    1                               # 0x1
    .byte    1                               # 0x1
    .byte    1                               # 0x1
    .zero    1
    .zero    1
    .zero    1
    .zero    1
    .zero    1
    .zero    1
    .zero    1
    .zero    1
.LCPI0_24:
    .zero    1
    .zero    1
    .zero    1
    .zero    1
    .zero    1
    .zero    1
    .zero    1
    .zero    1
    .zero    1
    .zero    1
    .zero    1
    .zero    1
    .zero    1
    .zero    1
    .zero    1
    .zero    1
    .byte    2                               # 0x2
    .byte    2                               # 0x2
    .byte    2                               # 0x2
    .byte    2                               # 0x2
    .byte    2                               # 0x2
    .byte    2                               # 0x2
    .byte    2                               # 0x2
    .byte    2                               # 0x2
    .zero    1
    .zero    1
    .zero    1
    .zero    1
    .zero    1
    .zero    1
    .zero    1
    .zero    1
.LCPI0_25:
    .zero    1
    .zero    1
    .zero    1
    .zero    1
    .zero    1
    .zero    1
    .zero    1
    .zero    1
    .zero    1
    .zero    1
    .zero    1
    .zero    1
    .zero    1
    .zero    1
    .zero    1
    .zero    1
    .byte    3                               # 0x3
    .byte    3                               # 0x3
    .byte    3                               # 0x3
    .byte    3                               # 0x3
    .byte    3                               # 0x3
    .byte    3                               # 0x3
    .byte    3                               # 0x3
    .byte    3                               # 0x3
    .zero    1
    .zero    1
    .zero    1
    .zero    1
    .zero    1
    .zero    1
    .zero    1
    .zero    1
.LCPI0_26:
    .zero    1
    .zero    1
    .zero    1
    .zero    1
    .zero    1
    .zero    1
    .zero    1
    .zero    1
    .zero    1
    .zero    1
    .zero    1
    .zero    1
    .zero    1
    .zero    1
    .zero    1
    .zero    1
    .byte    4                               # 0x4
    .byte    4                               # 0x4
    .byte    4                               # 0x4
    .byte    4                               # 0x4
    .byte    4                               # 0x4
    .byte    4                               # 0x4
    .byte    4                               # 0x4
    .byte    4                               # 0x4
    .zero    1
    .zero    1
    .zero    1
    .zero    1
    .zero    1
    .zero    1
    .zero    1
    .zero    1
.LCPI0_27:
    .zero    1
    .zero    1
    .zero    1
    .zero    1
    .zero    1
    .zero    1
    .zero    1
    .zero    1
    .zero    1
    .zero    1
    .zero    1
    .zero    1
    .zero    1
    .zero    1
    .zero    1
    .zero    1
    .byte    5                               # 0x5
    .byte    5                               # 0x5
    .byte    5                               # 0x5
    .byte    5                               # 0x5
    .byte    5                               # 0x5
    .byte    5                               # 0x5
    .byte    5                               # 0x5
    .byte    5                               # 0x5
    .zero    1
    .zero    1
    .zero    1
    .zero    1
    .zero    1
    .zero    1
    .zero    1
    .zero    1
.LCPI0_28:
    .zero    1
    .zero    1
    .zero    1
    .zero    1
    .zero    1
    .zero    1
    .zero    1
    .zero    1
    .zero    1
    .zero    1
    .zero    1
    .zero    1
    .zero    1
    .zero    1
    .zero    1
    .zero    1
    .byte    6                               # 0x6
    .byte    6                               # 0x6
    .byte    6                               # 0x6
    .byte    6                               # 0x6
    .byte    6                               # 0x6
    .byte    6                               # 0x6
    .byte    6                               # 0x6
    .byte    6                               # 0x6
    .zero    1
    .zero    1
    .zero    1
    .zero    1
    .zero    1
    .zero    1
    .zero    1
    .zero    1
.LCPI0_29:
    .zero    1
    .zero    1
    .zero    1
    .zero    1
    .zero    1
    .zero    1
    .zero    1
    .zero    1
    .zero    1
    .zero    1
    .zero    1
    .zero    1
    .zero    1
    .zero    1
    .zero    1
    .zero    1
    .byte    7                               # 0x7
    .byte    7                               # 0x7
    .byte    7                               # 0x7
    .byte    7                               # 0x7
    .byte    7                               # 0x7
    .byte    7                               # 0x7
    .byte    7                               # 0x7
    .byte    7                               # 0x7
    .zero    1
    .zero    1
    .zero    1
    .zero    1
    .zero    1
    .zero    1
    .zero    1
    .zero    1
.LCPI0_30:
    .zero    1
    .zero    1
    .zero    1
    .zero    1
    .zero    1
    .zero    1
    .zero    1
    .zero    1
    .zero    1
    .zero    1
    .zero    1
    .zero    1
    .zero    1
    .zero    1
    .zero    1
    .zero    1
    .byte    8                               # 0x8
    .byte    8                               # 0x8
    .byte    8                               # 0x8
    .byte    8                               # 0x8
    .byte    8                               # 0x8
    .byte    8                               # 0x8
    .byte    8                               # 0x8
    .byte    8                               # 0x8
    .zero    1
    .zero    1
    .zero    1
    .zero    1
    .zero    1
    .zero    1
    .zero    1
    .zero    1
.LCPI0_31:
    .zero    1
    .zero    1
    .zero    1
    .zero    1
    .zero    1
    .zero    1
    .zero    1
    .zero    1
    .zero    1
    .zero    1
    .zero    1
    .zero    1
    .zero    1
    .zero    1
    .zero    1
    .zero    1
    .byte    9                               # 0x9
    .byte    9                               # 0x9
    .byte    9                               # 0x9
    .byte    9                               # 0x9
    .byte    9                               # 0x9
    .byte    9                               # 0x9
    .byte    9                               # 0x9
    .byte    9                               # 0x9
    .zero    1
    .zero    1
    .zero    1
    .zero    1
    .zero    1
    .zero    1
    .zero    1
    .zero    1
.LCPI0_32:
    .zero    1
    .zero    1
    .zero    1
    .zero    1
    .zero    1
    .zero    1
    .zero    1
    .zero    1
    .zero    1
    .zero    1
    .zero    1
    .zero    1
    .zero    1
    .zero    1
    .zero    1
    .zero    1
    .byte    10                              # 0xa
    .byte    10                              # 0xa
    .byte    10                              # 0xa
    .byte    10                              # 0xa
    .byte    10                              # 0xa
    .byte    10                              # 0xa
    .byte    10                              # 0xa
    .byte    10                              # 0xa
    .zero    1
    .zero    1
    .zero    1
    .zero    1
    .zero    1
    .zero    1
    .zero    1
    .zero    1
.LCPI0_33:
    .zero    1
    .zero    1
    .zero    1
    .zero    1
    .zero    1
    .zero    1
    .zero    1
    .zero    1
    .zero    1
    .zero    1
    .zero    1
    .zero    1
    .zero    1
    .zero    1
    .zero    1
    .zero    1
    .byte    11                              # 0xb
    .byte    11                              # 0xb
    .byte    11                              # 0xb
    .byte    11                              # 0xb
    .byte    11                              # 0xb
    .byte    11                              # 0xb
    .byte    11                              # 0xb
    .byte    11                              # 0xb
    .zero    1
    .zero    1
    .zero    1
    .zero    1
    .zero    1
    .zero    1
    .zero    1
    .zero    1
.LCPI0_34:
    .zero    1
    .zero    1
    .zero    1
    .zero    1
    .zero    1
    .zero    1
    .zero    1
    .zero    1
    .zero    1
    .zero    1
    .zero    1
    .zero    1
    .zero    1
    .zero    1
    .zero    1
    .zero    1
    .byte    12                              # 0xc
    .byte    12                              # 0xc
    .byte    12                              # 0xc
    .byte    12                              # 0xc
    .byte    12                              # 0xc
    .byte    12                              # 0xc
    .byte    12                              # 0xc
    .byte    12                              # 0xc
    .zero    1
    .zero    1
    .zero    1
    .zero    1
    .zero    1
    .zero    1
    .zero    1
    .zero    1
.LCPI0_35:
    .zero    1
    .zero    1
    .zero    1
    .zero    1
    .zero    1
    .zero    1
    .zero    1
    .zero    1
    .zero    1
    .zero    1
    .zero    1
    .zero    1
    .zero    1
    .zero    1
    .zero    1
    .zero    1
    .byte    13                              # 0xd
    .byte    13                              # 0xd
    .byte    13                              # 0xd
    .byte    13                              # 0xd
    .byte    13                              # 0xd
    .byte    13                              # 0xd
    .byte    13                              # 0xd
    .byte    13                              # 0xd
    .zero    1
    .zero    1
    .zero    1
    .zero    1
    .zero    1
    .zero    1
    .zero    1
    .zero    1
.LCPI0_36:
    .zero    1
    .zero    1
    .zero    1
    .zero    1
    .zero    1
    .zero    1
    .zero    1
    .zero    1
    .zero    1
    .zero    1
    .zero    1
    .zero    1
    .zero    1
    .zero    1
    .zero    1
    .zero    1
    .byte    14                              # 0xe
    .byte    14                              # 0xe
    .byte    14                              # 0xe
    .byte    14                              # 0xe
    .byte    14                              # 0xe
    .byte    14                              # 0xe
    .byte    14                              # 0xe
    .byte    14                              # 0xe
    .zero    1
    .zero    1
    .zero    1
    .zero    1
    .zero    1
    .zero    1
    .zero    1
    .zero    1
.LCPI0_37:
    .zero    1
    .zero    1
    .zero    1
    .zero    1
    .zero    1
    .zero    1
    .zero    1
    .zero    1
    .zero    1
    .zero    1
    .zero    1
    .zero    1
    .zero    1
    .zero    1
    .zero    1
    .zero    1
    .byte    15                              # 0xf
    .byte    15                              # 0xf
    .byte    15                              # 0xf
    .byte    15                              # 0xf
    .byte    15                              # 0xf
    .byte    15                              # 0xf
    .byte    15                              # 0xf
    .byte    15                              # 0xf
    .zero    1
    .zero    1
    .zero    1
    .zero    1
    .zero    1
    .zero    1
    .zero    1
    .zero    1
    .section    .rodata.cst4,"aM",@progbits,4
    .p2align    2, 0x0
.LCPI0_38:
    .long    1                               # 0x1
.LCPI0_39:
    .long    2                               # 0x2
.LCPI0_40:
    .long    3                               # 0x3
.LCPI0_41:
    .long    4                               # 0x4
.LCPI0_42:
    .long    5                               # 0x5
.LCPI0_43:
    .long    6                               # 0x6
.LCPI0_44:
    .long    7                               # 0x7
    .section    .rodata.cst8,"aM",@progbits,8
.LCPI0_45:
    .byte    24                              # 0x18
    .byte    25                              # 0x19
    .byte    26                              # 0x1a
    .byte    27                              # 0x1b
    .byte    28                              # 0x1c
    .byte    29                              # 0x1d
    .byte    30                              # 0x1e
    .byte    31                              # 0x1f
    .section    .rodata,"a",@progbits
.LCPI0_46:
    .byte    1                               # 0x1
.LCPI0_47:
    .byte    2                               # 0x2
.LCPI0_48:
    .byte    3                               # 0x3
.LCPI0_49:
    .byte    4                               # 0x4
.LCPI0_50:
    .byte    5                               # 0x5
.LCPI0_51:
    .byte    6                               # 0x6
.LCPI0_52:
    .byte    7                               # 0x7
.LCPI0_53:
    .byte    8                               # 0x8
.LCPI0_54:
    .byte    9                               # 0x9
.LCPI0_55:
    .byte    10                              # 0xa
.LCPI0_56:
    .byte    11                              # 0xb
.LCPI0_57:
    .byte    12                              # 0xc
.LCPI0_58:
    .byte    13                              # 0xd
.LCPI0_59:
    .byte    14                              # 0xe
.LCPI0_60:
    .byte    15                              # 0xf
    .text
    .globl    mm
    .p2align    4
    .type    mm,@function
mm:                                     # @mm
.Lfunc_begin0:
    .file    1 "/home/uzairn/github/KernMLOps/python/kernmlops/compiler/extern_kernels" "mm.py"
    .loc    1 13 0                          # mm.py:13:0
    .cfi_sections .debug_frame
    .cfi_startproc
# %bb.0:
    pushq    %rbp
    .cfi_def_cfa_offset 16
    pushq    %r15
    .cfi_def_cfa_offset 24
    pushq    %r14
    .cfi_def_cfa_offset 32
    pushq    %r13
    .cfi_def_cfa_offset 40
    pushq    %r12
    .cfi_def_cfa_offset 48
    pushq    %rbx
    .cfi_def_cfa_offset 56
    subq    $34808, %rsp                    # imm = 0x87F8
    .cfi_def_cfa_offset 34864
    .cfi_offset %rbx, -56
    .cfi_offset %r12, -48
    .cfi_offset %r13, -40
    .cfi_offset %r14, -32
    .cfi_offset %r15, -24
    .cfi_offset %rbp, -16
    movq    %r9, 22008(%rsp)                # 8-byte Spill
    movq    %r8, 22024(%rsp)                # 8-byte Spill
    movq    %rcx, 22000(%rsp)               # 8-byte Spill
                                        # kill: def $edx killed $edx def $rdx
                                        # kill: def $esi killed $esi def $rsi
                                        # kill: def $edi killed $edi def $rdi
.Ltmp0:
    .loc    1 26 28 prologue_end            # mm.py:26:28
    leal    63(%rdi), %eax
    movq    %rax, 19872(%rsp)               # 8-byte Spill
    .loc    1 30 26                         # mm.py:30:26
    cmpl    $64, %eax
    jl    .LBB0_10
# %bb.1:                                # %.lr.ph69
    .loc    1 0 26 is_stmt 0                # mm.py:0:26
    movl    34872(%rsp), %ecx
    movl    34864(%rsp), %r8d
    vmovd    %edi, %xmm0
    vpbroadcastd    %xmm0, %ymm0
    vmovdqu    %ymm0, 30768(%rsp)              # 32-byte Spill
    vmovd    %esi, %xmm0
    vpbroadcastd    %xmm0, %ymm0
    vmovdqu    %ymm0, 30800(%rsp)              # 32-byte Spill
    vmovd    %edx, %xmm0
    vpbroadcastd    %xmm0, %ymm0
    vmovdqu    %ymm0, 30832(%rsp)              # 32-byte Spill
.Ltmp1:
    .file    2 "/home/uzairn/github/KernMLOps/external/triton-cpu/python/triton/language" "standard.py"
    .loc    2 40 22 is_stmt 1               # standard.py:40:22 @[ mm.py:40:37 ]
    leal    31(%rdx), %eax
    .loc    2 40 28 is_stmt 0               # standard.py:40:28 @[ mm.py:40:37 ]
    addl    $62, %edx
    testl    %eax, %eax
    movl    %eax, 20200(%rsp)               # 4-byte Spill
    cmovnsl    %eax, %edx
    sarl    $5, %edx
    movq    %rdx, 22016(%rsp)               # 8-byte Spill
.Ltmp2:
    .loc    1 27 28 is_stmt 1               # mm.py:27:28
    leal    63(%rsi), %eax
    .loc    1 27 34 is_stmt 0               # mm.py:27:34
    addl    $126, %esi
    testl    %eax, %eax
    movl    %eax, 20196(%rsp)               # 4-byte Spill
    cmovnsl    %eax, %esi
    sarl    $6, %esi
    movq    %rsi, 22032(%rsp)               # 8-byte Spill
    movq    19872(%rsp), %rax               # 8-byte Reload
    .loc    1 26 34 is_stmt 1               # mm.py:26:34
    shrl    $6, %eax
    movq    %rax, 19872(%rsp)               # 8-byte Spill
    .loc    1 30 26                         # mm.py:30:26
    movl    %ecx, %r12d
    shll    $5, %r12d
    movl    %r12d, %eax
    subl    %ecx, %eax
    movq    %rax, 22792(%rsp)               # 8-byte Spill
    leal    (%rcx,%rcx), %r10d
    movl    %r12d, %eax
    subl    %r10d, %eax
    movq    %rax, 22776(%rsp)               # 8-byte Spill
    leal    (,%rcx,8), %r9d
    leal    (%rcx,%rcx,2), %eax
    movq    %rax, 20856(%rsp)               # 8-byte Spill
    leal    (,%rax,8), %eax
    subl    %ecx, %eax
    movq    %rax, 22760(%rsp)               # 8-byte Spill
    movl    %ecx, %r14d
    shll    $4, %r14d
    movl    %r14d, %eax
    subl    %r10d, %eax
    movq    %rax, 22744(%rsp)               # 8-byte Spill
    movl    %r9d, %eax
    subl    %ecx, %eax
    movq    %rax, 22736(%rsp)               # 8-byte Spill
    movl    %r8d, %eax
    shll    $6, %eax
    movl    %eax, %esi
    subl    %r8d, %esi
    movl    %esi, 17740(%rsp)               # 4-byte Spill
    leal    (%r8,%r8), %edx
    movl    %eax, 20192(%rsp)               # 4-byte Spill
    subl    %edx, %eax
    movl    %eax, 17736(%rsp)               # 4-byte Spill
    movl    %r8d, %ebx
    shll    $4, %ebx
    movl    %r8d, %r11d
    shll    $5, %r11d
    movl    %r11d, %ebp
    subl    %r8d, %ebp
    movl    %ebp, 17732(%rsp)               # 4-byte Spill
    movl    %r11d, %ebp
    subl    %edx, %ebp
    movl    %ebp, 17728(%rsp)               # 4-byte Spill
    leal    (%r8,%r8,2), %r13d
    leal    (,%r13,8), %ebp
    subl    %r8d, %ebp
    movl    %ebp, 17724(%rsp)               # 4-byte Spill
    movl    %ebx, %ebp
    subl    %edx, %ebp
    movl    %ebp, 17720(%rsp)               # 4-byte Spill
    leal    (,%r8,8), %edi
    movl    %edi, %r15d
    subl    %r8d, %r15d
    movl    %r15d, 17716(%rsp)              # 4-byte Spill
    vpmovsxbd    .LCPI0_45(%rip), %ymm13 # ymm13 = [24,25,26,27,28,29,30,31]
    leal    (%rcx,%rcx,8), %esi
    leal    (%rsi,%rsi,2), %r15d
    leal    (%r10,%r15), %eax
    movq    %rax, 22712(%rsp)               # 8-byte Spill
    movq    %r15, 22720(%rsp)               # 8-byte Spill
    leal    (%r15,%rcx), %eax
    movq    %rax, 22704(%rsp)               # 8-byte Spill
    leal    (%rcx,%rcx,4), %eax
    leal    (%rax,%rax,4), %r15d
    movq    %r15, 22688(%rsp)               # 8-byte Spill
    leal    (%r15,%rcx), %r15d
    movq    %r15, 22680(%rsp)               # 8-byte Spill
    movq    %r9, 22768(%rsp)                # 8-byte Spill
    leal    (%r9,%r9,2), %r15d
    movq    %r15, 22672(%rsp)               # 8-byte Spill
    leal    (%r10,%rax,4), %r15d
    movq    %r15, 22664(%rsp)               # 8-byte Spill
    leal    (%rcx,%rax,4), %r15d
    movq    %r15, 22656(%rsp)               # 8-byte Spill
    leal    (,%rcx,4), %r15d
    leal    (%r15,%r15,4), %ebp
    movq    %rbp, 22640(%rsp)               # 8-byte Spill
    movq    %rsi, 22728(%rsp)               # 8-byte Spill
    leal    (%rcx,%rsi,2), %esi
    movq    %rsi, 22632(%rsp)               # 8-byte Spill
    leal    (%r10,%r10,8), %esi
    movq    %rsi, 22624(%rsp)               # 8-byte Spill
    movq    %r14, 22752(%rsp)               # 8-byte Spill
    leal    (%rcx,%r14), %esi
    movq    %rsi, 22616(%rsp)               # 8-byte Spill
    leal    (%rax,%rax,2), %esi
    movq    %rsi, 22608(%rsp)               # 8-byte Spill
    movq    20856(%rsp), %rsi               # 8-byte Reload
    leal    (%rcx,%rsi,4), %esi
    movq    %rsi, 22600(%rsp)               # 8-byte Spill
    movq    %r15, 22648(%rsp)               # 8-byte Spill
    leal    (%r15,%r15,2), %esi
    movq    %rsi, 22592(%rsp)               # 8-byte Spill
    movq    %rax, 22696(%rsp)               # 8-byte Spill
    leal    (%rcx,%rax,2), %eax
    movq    %rax, 22584(%rsp)               # 8-byte Spill
    leal    (%r10,%r10,4), %eax
    movq    %rax, 22576(%rsp)               # 8-byte Spill
    movq    %r10, 22784(%rsp)               # 8-byte Spill
    leal    (%r10,%r10,2), %eax
    movq    %rax, 22568(%rsp)               # 8-byte Spill
    imull    $61, %r8d, %eax
    movl    %eax, 17712(%rsp)               # 4-byte Spill
    imull    $60, %r8d, %eax
    movl    %eax, 17708(%rsp)               # 4-byte Spill
    imull    $59, %r8d, %eax
    movl    %eax, 17704(%rsp)               # 4-byte Spill
    imull    $58, %r8d, %eax
    movl    %eax, 17700(%rsp)               # 4-byte Spill
    imull    $57, %r8d, %eax
    movl    %eax, 17696(%rsp)               # 4-byte Spill
    imull    $56, %r8d, %eax
    movl    %eax, 17692(%rsp)               # 4-byte Spill
    imull    $55, %r8d, %eax
    movl    %eax, 17688(%rsp)               # 4-byte Spill
    imull    $54, %r8d, %eax
    movl    %eax, 17684(%rsp)               # 4-byte Spill
    imull    $53, %r8d, %eax
    movl    %eax, 17680(%rsp)               # 4-byte Spill
    imull    $52, %r8d, %eax
    movl    %eax, 17676(%rsp)               # 4-byte Spill
    imull    $51, %r8d, %eax
    movl    %eax, 17672(%rsp)               # 4-byte Spill
    imull    $50, %r8d, %eax
    movl    %eax, 17668(%rsp)               # 4-byte Spill
    imull    $49, %r8d, %eax
    movl    %eax, 17664(%rsp)               # 4-byte Spill
    leal    (%rbx,%rbx,2), %eax
    movl    %eax, 17660(%rsp)               # 4-byte Spill
    imull    $47, %r8d, %eax
    movl    %eax, 17656(%rsp)               # 4-byte Spill
    imull    $46, %r8d, %eax
    movl    %eax, 17652(%rsp)               # 4-byte Spill
    leal    (%r8,%r8,8), %eax
    leal    (%rax,%rax,4), %ecx
    movl    %ecx, 17648(%rsp)               # 4-byte Spill
    imull    $44, %r8d, %ecx
    movl    %ecx, 17644(%rsp)               # 4-byte Spill
    imull    $43, %r8d, %ecx
    movl    %ecx, 17640(%rsp)               # 4-byte Spill
    imull    $42, %r8d, %ecx
    movl    %ecx, 17636(%rsp)               # 4-byte Spill
    leal    (%r8,%r8,4), %ecx
    leal    (%r8,%rcx,8), %esi
    movl    %esi, 17632(%rsp)               # 4-byte Spill
    leal    (%rdi,%rdi,4), %esi
    movl    %esi, 17628(%rsp)               # 4-byte Spill
    imull    $39, %r8d, %esi
    movl    %esi, 17624(%rsp)               # 4-byte Spill
    imull    $38, %r8d, %esi
    movl    %esi, 17620(%rsp)               # 4-byte Spill
    leal    (%r8,%rax,4), %esi
    movl    %esi, 17616(%rsp)               # 4-byte Spill
    leal    (,%r8,4), %esi
    leal    (%rsi,%rsi,8), %r15d
    movl    %r15d, 17612(%rsp)              # 4-byte Spill
    imull    $35, %r8d, %r15d
    movl    %r15d, 17608(%rsp)              # 4-byte Spill
    leal    (%r11,%r8,2), %r15d
    movl    %r15d, 17604(%rsp)              # 4-byte Spill
    movq    %r11, 19952(%rsp)               # 8-byte Spill
    addl    %r8d, %r11d
    movl    %r11d, 17600(%rsp)              # 4-byte Spill
    leal    (%rax,%rax,2), %r11d
    leal    (%rdx,%r11), %r15d
    movl    %r15d, 17596(%rsp)              # 4-byte Spill
    movq    %r11, 19904(%rsp)               # 8-byte Spill
    leal    (%r11,%r8), %r11d
    movl    %r11d, 17592(%rsp)              # 4-byte Spill
    leal    (%rcx,%rcx,4), %r11d
    movq    %r11, 19896(%rsp)               # 8-byte Spill
    leal    (%r11,%r8), %r11d
    movl    %r11d, 17588(%rsp)              # 4-byte Spill
    movq    %rdi, 19936(%rsp)               # 8-byte Spill
    leal    (%rdi,%rdi,2), %r11d
    movl    %r11d, 17584(%rsp)              # 4-byte Spill
    leal    (%rdx,%rcx,4), %r11d
    movl    %r11d, 17580(%rsp)              # 4-byte Spill
    leal    (%r8,%rcx,4), %r11d
    movl    %r11d, 17576(%rsp)              # 4-byte Spill
    leal    (%rsi,%rsi,4), %r11d
    movl    %r11d, 17572(%rsp)              # 4-byte Spill
    movq    %rax, 19928(%rsp)               # 8-byte Spill
    leal    (%r8,%rax,2), %eax
    movl    %eax, 17568(%rsp)               # 4-byte Spill
    leal    (%rdx,%rdx,8), %eax
    movl    %eax, 17564(%rsp)               # 4-byte Spill
    movq    %rbx, 19960(%rsp)               # 8-byte Spill
    leal    (%r8,%rbx), %eax
    movl    %eax, 17560(%rsp)               # 4-byte Spill
    leal    (%rcx,%rcx,2), %eax
    movl    %eax, 17556(%rsp)               # 4-byte Spill
    movq    %r13, 19944(%rsp)               # 8-byte Spill
    leal    (%r8,%r13,4), %eax
    movl    %eax, 17552(%rsp)               # 4-byte Spill
    movq    %rsi, 19912(%rsp)               # 8-byte Spill
    leal    (%rsi,%rsi,2), %eax
    movl    %eax, 17548(%rsp)               # 4-byte Spill
    movq    %r8, 19976(%rsp)                # 8-byte Spill
    movq    %rcx, 19920(%rsp)               # 8-byte Spill
    leal    (%r8,%rcx,2), %eax
    movl    %eax, 17544(%rsp)               # 4-byte Spill
    leal    (%rdx,%rdx,4), %eax
    movl    %eax, 17540(%rsp)               # 4-byte Spill
    movq    %rdx, 19968(%rsp)               # 8-byte Spill
    leal    (%rdx,%rdx,2), %eax
    movl    %eax, 17536(%rsp)               # 4-byte Spill
    movq    $0, 19888(%rsp)                 # 8-byte Folded Spill
    movq    $0, 19880(%rsp)                 # 8-byte Folded Spill
    vbroadcastss    .LCPI0_38(%rip), %ymm14 # ymm14 = [1,1,1,1,1,1,1,1]
    vbroadcastss    .LCPI0_39(%rip), %ymm0  # ymm0 = [2,2,2,2,2,2,2,2]
    vmovups    %ymm0, 128(%rsp)                # 32-byte Spill
    vbroadcastss    .LCPI0_40(%rip), %ymm0  # ymm0 = [3,3,3,3,3,3,3,3]
    vmovups    %ymm0, 96(%rsp)                 # 32-byte Spill
    vbroadcastss    .LCPI0_41(%rip), %ymm0  # ymm0 = [4,4,4,4,4,4,4,4]
    vmovups    %ymm0, 64(%rsp)                 # 32-byte Spill
    vbroadcastss    .LCPI0_42(%rip), %ymm0  # ymm0 = [5,5,5,5,5,5,5,5]
    vmovups    %ymm0, 192(%rsp)                # 32-byte Spill
    vbroadcastss    .LCPI0_43(%rip), %ymm0  # ymm0 = [6,6,6,6,6,6,6,6]
    vmovups    %ymm0, 160(%rsp)                # 32-byte Spill
    vbroadcastss    .LCPI0_44(%rip), %ymm0  # ymm0 = [7,7,7,7,7,7,7,7]
    vmovups    %ymm0, 224(%rsp)                # 32-byte Spill
    movl    %r12d, 20460(%rsp)              # 4-byte Spill
    vmovups    %ymm14, 16(%rsp)                # 32-byte Spill
    jmp    .LBB0_2
    .loc    1 0 26 is_stmt 0                # :0:26
.Ltmp3:
    .p2align    4
.LBB0_9:                                # %._crit_edge67
                                        #   in Loop: Header=BB0_2 Depth=1
    movq    19880(%rsp), %rsi               # 8-byte Reload
    .loc    1 30 26 is_stmt 1               # mm.py:30:26
    incq    %rsi
    movl    20192(%rsp), %ecx               # 4-byte Reload
    addl    %ecx, 17740(%rsp)               # 4-byte Folded Spill
    addl    %ecx, 17736(%rsp)               # 4-byte Folded Spill
    addl    %ecx, 17712(%rsp)               # 4-byte Folded Spill
    addl    %ecx, 17708(%rsp)               # 4-byte Folded Spill
    addl    %ecx, 17704(%rsp)               # 4-byte Folded Spill
    addl    %ecx, 17700(%rsp)               # 4-byte Folded Spill
    addl    %ecx, 17696(%rsp)               # 4-byte Folded Spill
    addl    %ecx, 17692(%rsp)               # 4-byte Folded Spill
    addl    %ecx, 17688(%rsp)               # 4-byte Folded Spill
    addl    %ecx, 17684(%rsp)               # 4-byte Folded Spill
    addl    %ecx, 17680(%rsp)               # 4-byte Folded Spill
    addl    %ecx, 17676(%rsp)               # 4-byte Folded Spill
    addl    %ecx, 17672(%rsp)               # 4-byte Folded Spill
    addl    %ecx, 17668(%rsp)               # 4-byte Folded Spill
    addl    %ecx, 17664(%rsp)               # 4-byte Folded Spill
    addl    %ecx, 17660(%rsp)               # 4-byte Folded Spill
    addl    %ecx, 17656(%rsp)               # 4-byte Folded Spill
    addl    %ecx, 17652(%rsp)               # 4-byte Folded Spill
    addl    %ecx, 17648(%rsp)               # 4-byte Folded Spill
    addl    %ecx, 17644(%rsp)               # 4-byte Folded Spill
    addl    %ecx, 17640(%rsp)               # 4-byte Folded Spill
    addl    %ecx, 17636(%rsp)               # 4-byte Folded Spill
    addl    %ecx, 17632(%rsp)               # 4-byte Folded Spill
    addl    %ecx, 17628(%rsp)               # 4-byte Folded Spill
    addl    %ecx, 17624(%rsp)               # 4-byte Folded Spill
    addl    %ecx, 17620(%rsp)               # 4-byte Folded Spill
    addl    %ecx, 17616(%rsp)               # 4-byte Folded Spill
    addl    %ecx, 17612(%rsp)               # 4-byte Folded Spill
    addl    %ecx, 17608(%rsp)               # 4-byte Folded Spill
    addl    %ecx, 17604(%rsp)               # 4-byte Folded Spill
    addl    %ecx, 17600(%rsp)               # 4-byte Folded Spill
    movq    19952(%rsp), %rax               # 8-byte Reload
    addl    %ecx, %eax
    movq    %rax, 19952(%rsp)               # 8-byte Spill
    addl    %ecx, 17732(%rsp)               # 4-byte Folded Spill
    addl    %ecx, 17728(%rsp)               # 4-byte Folded Spill
    addl    %ecx, 17596(%rsp)               # 4-byte Folded Spill
    addl    %ecx, 17592(%rsp)               # 4-byte Folded Spill
    movq    19904(%rsp), %rax               # 8-byte Reload
    addl    %ecx, %eax
    movq    %rax, 19904(%rsp)               # 8-byte Spill
    addl    %ecx, 17588(%rsp)               # 4-byte Folded Spill
    movq    19896(%rsp), %rax               # 8-byte Reload
    addl    %ecx, %eax
    movq    %rax, 19896(%rsp)               # 8-byte Spill
    addl    %ecx, 17584(%rsp)               # 4-byte Folded Spill
    addl    %ecx, 17724(%rsp)               # 4-byte Folded Spill
    addl    %ecx, 17580(%rsp)               # 4-byte Folded Spill
    addl    %ecx, 17576(%rsp)               # 4-byte Folded Spill
    addl    %ecx, 17572(%rsp)               # 4-byte Folded Spill
    addl    %ecx, 17568(%rsp)               # 4-byte Folded Spill
    addl    %ecx, 17564(%rsp)               # 4-byte Folded Spill
    addl    %ecx, 17560(%rsp)               # 4-byte Folded Spill
    movq    19960(%rsp), %rax               # 8-byte Reload
    addl    %ecx, %eax
    movq    %rax, 19960(%rsp)               # 8-byte Spill
    addl    %ecx, 17556(%rsp)               # 4-byte Folded Spill
    addl    %ecx, 17720(%rsp)               # 4-byte Folded Spill
    addl    %ecx, 17552(%rsp)               # 4-byte Folded Spill
    addl    %ecx, 17548(%rsp)               # 4-byte Folded Spill
    addl    %ecx, 17544(%rsp)               # 4-byte Folded Spill
    addl    %ecx, 17540(%rsp)               # 4-byte Folded Spill
    movq    19928(%rsp), %rax               # 8-byte Reload
    addl    %ecx, %eax
    movq    %rax, 19928(%rsp)               # 8-byte Spill
    movq    19936(%rsp), %rax               # 8-byte Reload
    addl    %ecx, %eax
    movq    %rax, 19936(%rsp)               # 8-byte Spill
    addl    %ecx, 17716(%rsp)               # 4-byte Folded Spill
    addl    %ecx, 17536(%rsp)               # 4-byte Folded Spill
    movq    19920(%rsp), %rax               # 8-byte Reload
    addl    %ecx, %eax
    movq    %rax, 19920(%rsp)               # 8-byte Spill
    movq    19912(%rsp), %rax               # 8-byte Reload
    addl    %ecx, %eax
    movq    %rax, 19912(%rsp)               # 8-byte Spill
    movq    19944(%rsp), %rax               # 8-byte Reload
    addl    %ecx, %eax
    movq    %rax, 19944(%rsp)               # 8-byte Spill
    movq    19968(%rsp), %rax               # 8-byte Reload
    addl    %ecx, %eax
    movq    %rax, 19968(%rsp)               # 8-byte Spill
    movq    19976(%rsp), %rax               # 8-byte Reload
    addl    %ecx, %eax
    movq    %rax, 19976(%rsp)               # 8-byte Spill
    movq    19888(%rsp), %rax               # 8-byte Reload
    addl    %ecx, %eax
    movq    %rax, 19888(%rsp)               # 8-byte Spill
    movq    %rsi, 19880(%rsp)               # 8-byte Spill
    cmpq    19872(%rsp), %rsi               # 8-byte Folded Reload
    je    .LBB0_10
.LBB0_2:                                # =>This Loop Header: Depth=1
                                        #     Child Loop BB0_4 Depth 2
                                        #       Child Loop BB0_7 Depth 3
    .loc    1 0 26 is_stmt 0                # mm.py:0:26
    cmpl    $64, 20196(%rsp)                # 4-byte Folded Reload
    .loc    1 31 30 is_stmt 1               # mm.py:31:30
    jl    .LBB0_9
# %bb.3:                                # %.lr.ph66
                                        #   in Loop: Header=BB0_2 Depth=1
    .loc    1 0 30 is_stmt 0                # mm.py:0:30
    movq    19880(%rsp), %rdi               # 8-byte Reload
    shlq    $6, %rdi
    movslq    17740(%rsp), %rcx               # 4-byte Folded Reload
    movq    22000(%rsp), %rax               # 8-byte Reload
    leaq    (%rax,%rcx,4), %rcx
    movq    %rcx, 20184(%rsp)               # 8-byte Spill
    movslq    17736(%rsp), %rcx               # 4-byte Folded Reload
    leaq    (%rax,%rcx,4), %rcx
    movq    %rcx, 20176(%rsp)               # 8-byte Spill
    movslq    17712(%rsp), %rcx               # 4-byte Folded Reload
    leaq    (%rax,%rcx,4), %rcx
    movq    %rcx, 20168(%rsp)               # 8-byte Spill
    movslq    17708(%rsp), %rcx               # 4-byte Folded Reload
    leaq    (%rax,%rcx,4), %rcx
    movq    %rcx, 20160(%rsp)               # 8-byte Spill
    movslq    17704(%rsp), %rcx               # 4-byte Folded Reload
    leaq    (%rax,%rcx,4), %rcx
    movq    %rcx, 21128(%rsp)               # 8-byte Spill
    movslq    17700(%rsp), %rcx               # 4-byte Folded Reload
    leaq    (%rax,%rcx,4), %rcx
    movq    %rcx, 20152(%rsp)               # 8-byte Spill
    movslq    17696(%rsp), %rcx               # 4-byte Folded Reload
    leaq    (%rax,%rcx,4), %rcx
    movq    %rcx, 20144(%rsp)               # 8-byte Spill
    movslq    17692(%rsp), %rcx               # 4-byte Folded Reload
    leaq    (%rax,%rcx,4), %rcx
    movq    %rcx, 20136(%rsp)               # 8-byte Spill
    movslq    17688(%rsp), %rcx               # 4-byte Folded Reload
    leaq    (%rax,%rcx,4), %rcx
    movq    %rcx, 20128(%rsp)               # 8-byte Spill
    movslq    17684(%rsp), %rcx               # 4-byte Folded Reload
    leaq    (%rax,%rcx,4), %rcx
    movq    %rcx, 20120(%rsp)               # 8-byte Spill
    movslq    17680(%rsp), %rcx               # 4-byte Folded Reload
    leaq    (%rax,%rcx,4), %rcx
    movq    %rcx, 19160(%rsp)               # 8-byte Spill
    movslq    17676(%rsp), %rcx               # 4-byte Folded Reload
    leaq    (%rax,%rcx,4), %rcx
    movq    %rcx, 20112(%rsp)               # 8-byte Spill
    movslq    17672(%rsp), %rcx               # 4-byte Folded Reload
    leaq    (%rax,%rcx,4), %rcx
    movq    %rcx, 20104(%rsp)               # 8-byte Spill
    movslq    17668(%rsp), %rcx               # 4-byte Folded Reload
    leaq    (%rax,%rcx,4), %rcx
    movq    %rcx, 19152(%rsp)               # 8-byte Spill
    movslq    17664(%rsp), %rcx               # 4-byte Folded Reload
    leaq    (%rax,%rcx,4), %rcx
    movq    %rcx, 20096(%rsp)               # 8-byte Spill
    movslq    17660(%rsp), %rcx               # 4-byte Folded Reload
    leaq    (%rax,%rcx,4), %rcx
    movq    %rcx, 20088(%rsp)               # 8-byte Spill
    movslq    17656(%rsp), %rcx               # 4-byte Folded Reload
    leaq    (%rax,%rcx,4), %rcx
    movq    %rcx, 20080(%rsp)               # 8-byte Spill
    movslq    17652(%rsp), %rcx               # 4-byte Folded Reload
    leaq    (%rax,%rcx,4), %rcx
    movq    %rcx, 20072(%rsp)               # 8-byte Spill
    movslq    17648(%rsp), %rcx               # 4-byte Folded Reload
    leaq    (%rax,%rcx,4), %rcx
    movq    %rcx, 21120(%rsp)               # 8-byte Spill
    movslq    17644(%rsp), %rcx               # 4-byte Folded Reload
    leaq    (%rax,%rcx,4), %rcx
    movq    %rcx, 20064(%rsp)               # 8-byte Spill
    movslq    17640(%rsp), %rcx               # 4-byte Folded Reload
    leaq    (%rax,%rcx,4), %rcx
    movq    %rcx, 20056(%rsp)               # 8-byte Spill
    movslq    17636(%rsp), %rcx               # 4-byte Folded Reload
    leaq    (%rax,%rcx,4), %rcx
    movq    %rcx, 20048(%rsp)               # 8-byte Spill
    movslq    17632(%rsp), %rcx               # 4-byte Folded Reload
    leaq    (%rax,%rcx,4), %rcx
    movq    %rcx, 20040(%rsp)               # 8-byte Spill
    movslq    17628(%rsp), %rcx               # 4-byte Folded Reload
    leaq    (%rax,%rcx,4), %rcx
    movq    %rcx, 20032(%rsp)               # 8-byte Spill
    movslq    17624(%rsp), %rcx               # 4-byte Folded Reload
    leaq    (%rax,%rcx,4), %rcx
    movq    %rcx, 20024(%rsp)               # 8-byte Spill
    movslq    17620(%rsp), %rcx               # 4-byte Folded Reload
    leaq    (%rax,%rcx,4), %rcx
    movq    %rcx, 20016(%rsp)               # 8-byte Spill
    movslq    17616(%rsp), %rcx               # 4-byte Folded Reload
    leaq    (%rax,%rcx,4), %rcx
    movq    %rcx, 20008(%rsp)               # 8-byte Spill
    movslq    17612(%rsp), %rcx               # 4-byte Folded Reload
    leaq    (%rax,%rcx,4), %rcx
    movq    %rcx, 20000(%rsp)               # 8-byte Spill
    movslq    17608(%rsp), %rcx               # 4-byte Folded Reload
    leaq    (%rax,%rcx,4), %rcx
    movq    %rcx, 19992(%rsp)               # 8-byte Spill
    movslq    17604(%rsp), %rcx               # 4-byte Folded Reload
    leaq    (%rax,%rcx,4), %rcx
    movq    %rcx, 21112(%rsp)               # 8-byte Spill
    movslq    17600(%rsp), %rcx               # 4-byte Folded Reload
    leaq    (%rax,%rcx,4), %rcx
    movq    %rcx, 19984(%rsp)               # 8-byte Spill
    movslq    19952(%rsp), %rcx               # 4-byte Folded Reload
    leaq    (%rax,%rcx,4), %rcx
    movq    %rcx, 22808(%rsp)               # 8-byte Spill
    movslq    17732(%rsp), %rcx               # 4-byte Folded Reload
    leaq    (%rax,%rcx,4), %rcx
    movq    %rcx, 22800(%rsp)               # 8-byte Spill
    movslq    17728(%rsp), %rcx               # 4-byte Folded Reload
    leaq    (%rax,%rcx,4), %rcx
    movq    %rcx, 21104(%rsp)               # 8-byte Spill
    movslq    17596(%rsp), %rcx               # 4-byte Folded Reload
    leaq    (%rax,%rcx,4), %rcx
    movq    %rcx, 21096(%rsp)               # 8-byte Spill
    movslq    17592(%rsp), %rcx               # 4-byte Folded Reload
    leaq    (%rax,%rcx,4), %rcx
    movq    %rcx, 21088(%rsp)               # 8-byte Spill
    movslq    19904(%rsp), %rcx               # 4-byte Folded Reload
    leaq    (%rax,%rcx,4), %rcx
    movq    %rcx, 21080(%rsp)               # 8-byte Spill
    movslq    17588(%rsp), %rcx               # 4-byte Folded Reload
    leaq    (%rax,%rcx,4), %rcx
    movq    %rcx, 21072(%rsp)               # 8-byte Spill
    movslq    19896(%rsp), %rcx               # 4-byte Folded Reload
    leaq    (%rax,%rcx,4), %rcx
    movq    %rcx, 21064(%rsp)               # 8-byte Spill
    movslq    17584(%rsp), %rcx               # 4-byte Folded Reload
    leaq    (%rax,%rcx,4), %rcx
    movq    %rcx, 21056(%rsp)               # 8-byte Spill
    movslq    17724(%rsp), %rcx               # 4-byte Folded Reload
    leaq    (%rax,%rcx,4), %rcx
    movq    %rcx, 21048(%rsp)               # 8-byte Spill
    movslq    17580(%rsp), %rcx               # 4-byte Folded Reload
    leaq    (%rax,%rcx,4), %rcx
    movq    %rcx, 21040(%rsp)               # 8-byte Spill
    movslq    17576(%rsp), %rcx               # 4-byte Folded Reload
    leaq    (%rax,%rcx,4), %rcx
    movq    %rcx, 21032(%rsp)               # 8-byte Spill
    movslq    17572(%rsp), %rcx               # 4-byte Folded Reload
    leaq    (%rax,%rcx,4), %rcx
    movq    %rcx, 21024(%rsp)               # 8-byte Spill
    movslq    17568(%rsp), %rcx               # 4-byte Folded Reload
    leaq    (%rax,%rcx,4), %rcx
    movq    %rcx, 21016(%rsp)               # 8-byte Spill
    movslq    17564(%rsp), %rcx               # 4-byte Folded Reload
    leaq    (%rax,%rcx,4), %rcx
    movq    %rcx, 21008(%rsp)               # 8-byte Spill
    movslq    17560(%rsp), %rcx               # 4-byte Folded Reload
    leaq    (%rax,%rcx,4), %rcx
    movq    %rcx, 21000(%rsp)               # 8-byte Spill
    movslq    19960(%rsp), %rcx               # 4-byte Folded Reload
    leaq    (%rax,%rcx,4), %rcx
    movq    %rcx, 20992(%rsp)               # 8-byte Spill
    movslq    17556(%rsp), %rcx               # 4-byte Folded Reload
    leaq    (%rax,%rcx,4), %rcx
    movq    %rcx, 20984(%rsp)               # 8-byte Spill
    movslq    17720(%rsp), %rcx               # 4-byte Folded Reload
    leaq    (%rax,%rcx,4), %rcx
    movq    %rcx, 20976(%rsp)               # 8-byte Spill
    movslq    17552(%rsp), %rcx               # 4-byte Folded Reload
    leaq    (%rax,%rcx,4), %rcx
    movq    %rcx, 20968(%rsp)               # 8-byte Spill
    movslq    17548(%rsp), %rcx               # 4-byte Folded Reload
    leaq    (%rax,%rcx,4), %rcx
    movq    %rcx, 20960(%rsp)               # 8-byte Spill
    movslq    17544(%rsp), %rcx               # 4-byte Folded Reload
    leaq    (%rax,%rcx,4), %rcx
    movq    %rcx, 20952(%rsp)               # 8-byte Spill
    movslq    17540(%rsp), %rcx               # 4-byte Folded Reload
    leaq    (%rax,%rcx,4), %rcx
    movq    %rcx, 20944(%rsp)               # 8-byte Spill
    movslq    19928(%rsp), %rcx               # 4-byte Folded Reload
    leaq    (%rax,%rcx,4), %rcx
    movq    %rcx, 20936(%rsp)               # 8-byte Spill
    movslq    19936(%rsp), %rcx               # 4-byte Folded Reload
    leaq    (%rax,%rcx,4), %rcx
    movq    %rcx, 20928(%rsp)               # 8-byte Spill
    movslq    17716(%rsp), %rcx               # 4-byte Folded Reload
    leaq    (%rax,%rcx,4), %rcx
    movq    %rcx, 20920(%rsp)               # 8-byte Spill
    movslq    17536(%rsp), %rcx               # 4-byte Folded Reload
    leaq    (%rax,%rcx,4), %rcx
    movq    %rcx, 20912(%rsp)               # 8-byte Spill
    movslq    19920(%rsp), %rcx               # 4-byte Folded Reload
    leaq    (%rax,%rcx,4), %rcx
    movq    %rcx, 20904(%rsp)               # 8-byte Spill
    movslq    19912(%rsp), %rcx               # 4-byte Folded Reload
    leaq    (%rax,%rcx,4), %rcx
    movq    %rcx, 20896(%rsp)               # 8-byte Spill
    movslq    19944(%rsp), %rcx               # 4-byte Folded Reload
    leaq    (%rax,%rcx,4), %rcx
    movq    %rcx, 20888(%rsp)               # 8-byte Spill
    movslq    19968(%rsp), %rcx               # 4-byte Folded Reload
    leaq    (%rax,%rcx,4), %rcx
    movq    %rcx, 20880(%rsp)               # 8-byte Spill
    movslq    19976(%rsp), %rcx               # 4-byte Folded Reload
    leaq    (%rax,%rcx,4), %rcx
    movq    %rcx, 20872(%rsp)               # 8-byte Spill
    movslq    19888(%rsp), %rcx               # 4-byte Folded Reload
    leaq    (%rax,%rcx,4), %rax
    movq    %rax, 20864(%rsp)               # 8-byte Spill
    vmovd    %edi, %xmm0
    vpbroadcastd    %xmm0, %ymm0
    vpor    .LCPI0_0(%rip), %ymm0, %ymm1
    vpor    .LCPI0_1(%rip), %ymm0, %ymm11
    vpor    .LCPI0_2(%rip), %ymm0, %ymm8
    vpor    %ymm0, %ymm13, %ymm9
    vpor    .LCPI0_4(%rip), %ymm0, %ymm2
    vpor    .LCPI0_5(%rip), %ymm0, %ymm3
    vpor    .LCPI0_6(%rip), %ymm0, %ymm4
    vpor    .LCPI0_7(%rip), %ymm0, %ymm0
    vmovdqu    30768(%rsp), %ymm12             # 32-byte Reload
    vpcmpgtd    %ymm0, %ymm12, %ymm0
    vpcmpgtd    %ymm4, %ymm12, %ymm7
    vpackssdw    %ymm0, %ymm7, %ymm6
    vpermq    $216, %ymm6, %ymm5              # ymm5 = ymm6[0,2,1,3]
    vpcmpgtd    %ymm3, %ymm12, %ymm4
    vpcmpgtd    %ymm2, %ymm12, %ymm0
    vpackssdw    %ymm0, %ymm4, %ymm3
    vxorps    %xmm2, %xmm2, %xmm2
    vpermq    $216, %ymm3, %ymm2              # ymm2 = ymm3[0,2,1,3]
    vpacksswb    %ymm2, %ymm5, %ymm0
    vpcmpgtd    %ymm9, %ymm12, %ymm9
    vpcmpgtd    %ymm8, %ymm12, %ymm10
    vpackssdw    %ymm9, %ymm10, %ymm9
    vxorps    %xmm8, %xmm8, %xmm8
    vpermq    $216, %ymm9, %ymm8              # ymm8 = ymm9[0,2,1,3]
    vpcmpgtd    %ymm11, %ymm12, %ymm11
    vpcmpgtd    %ymm1, %ymm12, %ymm13
    vpackssdw    %ymm11, %ymm13, %ymm12
    vxorps    %xmm11, %xmm11, %xmm11
    vpermq    $216, %ymm12, %ymm11            # ymm11 = ymm12[0,2,1,3]
    vpacksswb    %ymm8, %ymm11, %ymm1
    vpsrlw    $8, %xmm1, %xmm14
    vpbroadcastb    %xmm14, %ymm14
    vmovdqu    %ymm14, 32880(%rsp)             # 32-byte Spill
    vpsrld    $16, %xmm1, %xmm14
    vpbroadcastb    %xmm14, %ymm14
    vmovdqu    %ymm14, 32848(%rsp)             # 32-byte Spill
    vpextrb    $0, %xmm13, %eax
    movl    %eax, 20456(%rsp)               # 4-byte Spill
    vpsrld    $24, %xmm1, %xmm13
    vpbroadcastb    %xmm13, %ymm13
    vmovdqu    %ymm13, 32816(%rsp)             # 32-byte Spill
    vpmovsxbd    .LCPI0_45(%rip), %ymm13 # ymm13 = [24,25,26,27,28,29,30,31]
    vpextrb    $2, %xmm12, %eax
    movl    %eax, 20452(%rsp)               # 4-byte Spill
    vpextrb    $4, %xmm12, %eax
    movl    %eax, 20448(%rsp)               # 4-byte Spill
    vpextrb    $6, %xmm12, %eax
    movl    %eax, 20444(%rsp)               # 4-byte Spill
    vpextrb    $8, %xmm11, %eax
    movl    %eax, 20440(%rsp)               # 4-byte Spill
    vpextrb    $10, %xmm11, %eax
    movl    %eax, 20436(%rsp)               # 4-byte Spill
    vpextrb    $12, %xmm11, %eax
    movl    %eax, 20432(%rsp)               # 4-byte Spill
    vpextrb    $14, %xmm11, %eax
    movl    %eax, 20428(%rsp)               # 4-byte Spill
    vpshufd    $85, %xmm1, %xmm12              # xmm12 = xmm1[1,1,1,1]
    vextracti128    $1, %ymm11, %xmm11
    vpextrb    $0, %xmm11, %eax
    movl    %eax, 20424(%rsp)               # 4-byte Spill
    vpextrb    $2, %xmm11, %eax
    movl    %eax, 20420(%rsp)               # 4-byte Spill
    vpextrb    $4, %xmm11, %eax
    movl    %eax, 20416(%rsp)               # 4-byte Spill
    vpextrb    $6, %xmm11, %eax
    movl    %eax, 20412(%rsp)               # 4-byte Spill
    vpextrb    $8, %xmm11, %eax
    movl    %eax, 20408(%rsp)               # 4-byte Spill
    vpextrb    $10, %xmm11, %eax
    movl    %eax, 20404(%rsp)               # 4-byte Spill
    vpextrb    $12, %xmm11, %eax
    movl    %eax, 20400(%rsp)               # 4-byte Spill
    vpextrb    $14, %xmm11, %eax
    movl    %eax, 20396(%rsp)               # 4-byte Spill
    vpbroadcastb    %xmm12, %ymm11
    vmovdqu    %ymm11, 32784(%rsp)             # 32-byte Spill
    vpsrlq    $40, %xmm1, %xmm11
    vpbroadcastb    %xmm11, %ymm11
    vmovdqu    %ymm11, 32752(%rsp)             # 32-byte Spill
    vpextrb    $0, %xmm10, %eax
    movl    %eax, 20392(%rsp)               # 4-byte Spill
    vpsrlq    $48, %xmm1, %xmm10
    vpextrb    $2, %xmm9, %eax
    movl    %eax, 20388(%rsp)               # 4-byte Spill
    vpextrb    $4, %xmm9, %eax
    movl    %eax, 20384(%rsp)               # 4-byte Spill
    vpextrb    $6, %xmm9, %eax
    movl    %eax, 20380(%rsp)               # 4-byte Spill
    vpbroadcastb    %xmm10, %ymm9
    vmovdqu    %ymm9, 32720(%rsp)              # 32-byte Spill
    vpsrlq    $56, %xmm1, %xmm9
    vpextrb    $8, %xmm8, %eax
    movl    %eax, 20376(%rsp)               # 4-byte Spill
    vpextrb    $10, %xmm8, %eax
    movl    %eax, 20372(%rsp)               # 4-byte Spill
    vpbroadcastb    %xmm9, %ymm9
    vmovdqu    %ymm9, 32688(%rsp)              # 32-byte Spill
    vpextrb    $12, %xmm8, %eax
    movl    %eax, 20368(%rsp)               # 4-byte Spill
    vpextrb    $14, %xmm8, %eax
    movl    %eax, 20364(%rsp)               # 4-byte Spill
    vextracti128    $1, %ymm8, %xmm8
    vpextrb    $0, %xmm8, %eax
    movl    %eax, 20360(%rsp)               # 4-byte Spill
    vpextrb    $2, %xmm8, %eax
    movl    %eax, 20356(%rsp)               # 4-byte Spill
    vpextrb    $4, %xmm8, %eax
    movl    %eax, 20352(%rsp)               # 4-byte Spill
    vpextrb    $6, %xmm8, %eax
    movl    %eax, 20348(%rsp)               # 4-byte Spill
    vpextrb    $8, %xmm8, %eax
    movl    %eax, 20344(%rsp)               # 4-byte Spill
    vpextrb    $10, %xmm8, %eax
    movl    %eax, 20340(%rsp)               # 4-byte Spill
    vpextrb    $12, %xmm8, %eax
    movl    %eax, 20336(%rsp)               # 4-byte Spill
    vpextrb    $14, %xmm8, %eax
    movl    %eax, 20332(%rsp)               # 4-byte Spill
    vextracti128    $1, %ymm1, %xmm8
    vpbroadcastb    %xmm8, %ymm8
    vmovdqu    %ymm8, 32656(%rsp)              # 32-byte Spill
    vpextrb    $0, %xmm7, %eax
    movl    %eax, 20328(%rsp)               # 4-byte Spill
    vpbroadcastb    .LCPI0_46(%rip), %ymm8  # ymm8 = [1,1,1,1,1,1,1,1,1,1,1,1,1,1,1,1,1,1,1,1,1,1,1,1,1,1,1,1,1,1,1,1]
    vpshufb    %ymm8, %ymm1, %ymm7
    vpermq    $170, %ymm7, %ymm7              # ymm7 = ymm7[2,2,2,2]
    vmovdqu    %ymm7, 32624(%rsp)              # 32-byte Spill
    vpextrb    $2, %xmm6, %eax
    movl    %eax, 20324(%rsp)               # 4-byte Spill
    vpextrb    $4, %xmm6, %eax
    movl    %eax, 20320(%rsp)               # 4-byte Spill
    vpextrb    $6, %xmm6, %eax
    movl    %eax, 20316(%rsp)               # 4-byte Spill
    vpextrb    $8, %xmm5, %eax
    movl    %eax, 20312(%rsp)               # 4-byte Spill
    vpextrb    $10, %xmm5, %eax
    movl    %eax, 20308(%rsp)               # 4-byte Spill
    vpextrb    $12, %xmm5, %eax
    movl    %eax, 20304(%rsp)               # 4-byte Spill
    vpextrb    $14, %xmm5, %eax
    movl    %eax, 20300(%rsp)               # 4-byte Spill
    vpbroadcastb    .LCPI0_47(%rip), %ymm10 # ymm10 = [2,2,2,2,2,2,2,2,2,2,2,2,2,2,2,2,2,2,2,2,2,2,2,2,2,2,2,2,2,2,2,2]
    vpshufb    %ymm10, %ymm1, %ymm6
    vextracti128    $1, %ymm5, %xmm5
    vpextrb    $0, %xmm5, %eax
    movl    %eax, 20296(%rsp)               # 4-byte Spill
    vpextrb    $2, %xmm5, %eax
    movl    %eax, 20292(%rsp)               # 4-byte Spill
    vpextrb    $4, %xmm5, %eax
    movl    %eax, 20288(%rsp)               # 4-byte Spill
    vpextrb    $6, %xmm5, %eax
    movl    %eax, 20284(%rsp)               # 4-byte Spill
    vpextrb    $8, %xmm5, %eax
    movl    %eax, 20280(%rsp)               # 4-byte Spill
    vpextrb    $10, %xmm5, %eax
    movl    %eax, 20276(%rsp)               # 4-byte Spill
    vpextrb    $12, %xmm5, %eax
    movl    %eax, 20272(%rsp)               # 4-byte Spill
    vpextrb    $14, %xmm5, %eax
    movl    %eax, 20268(%rsp)               # 4-byte Spill
    vxorps    %xmm5, %xmm5, %xmm5
    vpermq    $170, %ymm6, %ymm5              # ymm5 = ymm6[2,2,2,2]
    vmovdqu    %ymm5, 32592(%rsp)              # 32-byte Spill
    vpbroadcastb    .LCPI0_48(%rip), %ymm12 # ymm12 = [3,3,3,3,3,3,3,3,3,3,3,3,3,3,3,3,3,3,3,3,3,3,3,3,3,3,3,3,3,3,3,3]
    vpshufb    %ymm12, %ymm1, %ymm5
    vpermq    $170, %ymm5, %ymm5              # ymm5 = ymm5[2,2,2,2]
    vmovdqu    %ymm5, 32560(%rsp)              # 32-byte Spill
    vpextrb    $0, %xmm4, %eax
    movl    %eax, 20264(%rsp)               # 4-byte Spill
    vpbroadcastb    .LCPI0_49(%rip), %ymm15 # ymm15 = [4,4,4,4,4,4,4,4,4,4,4,4,4,4,4,4,4,4,4,4,4,4,4,4,4,4,4,4,4,4,4,4]
    vpshufb    %ymm15, %ymm1, %ymm4
    vpextrb    $2, %xmm3, %eax
    movl    %eax, 20260(%rsp)               # 4-byte Spill
    vpextrb    $4, %xmm3, %eax
    movl    %eax, 20256(%rsp)               # 4-byte Spill
    vpextrb    $6, %xmm3, %eax
    movl    %eax, 20252(%rsp)               # 4-byte Spill
    vpermq    $170, %ymm4, %ymm3              # ymm3 = ymm4[2,2,2,2]
    vmovdqu    %ymm3, 32528(%rsp)              # 32-byte Spill
    vpbroadcastb    .LCPI0_50(%rip), %ymm4  # ymm4 = [5,5,5,5,5,5,5,5,5,5,5,5,5,5,5,5,5,5,5,5,5,5,5,5,5,5,5,5,5,5,5,5]
    vpshufb    %ymm4, %ymm1, %ymm3
    vpextrb    $8, %xmm2, %eax
    movl    %eax, 20248(%rsp)               # 4-byte Spill
    vpextrb    $10, %xmm2, %eax
    movl    %eax, 20244(%rsp)               # 4-byte Spill
    vpermq    $170, %ymm3, %ymm3              # ymm3 = ymm3[2,2,2,2]
    vmovdqu    %ymm3, 32496(%rsp)              # 32-byte Spill
    vpextrb    $12, %xmm2, %eax
    movl    %eax, 20240(%rsp)               # 4-byte Spill
    vpextrb    $14, %xmm2, %eax
    movl    %eax, 20236(%rsp)               # 4-byte Spill
    vextracti128    $1, %ymm2, %xmm2
    vpextrb    $0, %xmm2, %eax
    movl    %eax, 20232(%rsp)               # 4-byte Spill
    vpextrb    $2, %xmm2, %eax
    movl    %eax, 20228(%rsp)               # 4-byte Spill
    vpextrb    $4, %xmm2, %eax
    movl    %eax, 20224(%rsp)               # 4-byte Spill
    vpextrb    $6, %xmm2, %eax
    movl    %eax, 20220(%rsp)               # 4-byte Spill
    vpextrb    $8, %xmm2, %eax
    movl    %eax, 20216(%rsp)               # 4-byte Spill
    vpextrb    $10, %xmm2, %eax
    movl    %eax, 20212(%rsp)               # 4-byte Spill
    vpextrb    $14, %xmm2, %eax
    movl    %eax, 20208(%rsp)               # 4-byte Spill
    vpextrb    $12, %xmm2, %eax
    movl    %eax, 20204(%rsp)               # 4-byte Spill
    vpbroadcastb    .LCPI0_51(%rip), %ymm9  # ymm9 = [6,6,6,6,6,6,6,6,6,6,6,6,6,6,6,6,6,6,6,6,6,6,6,6,6,6,6,6,6,6,6,6]
    vpshufb    %ymm9, %ymm1, %ymm2
    vpermq    $170, %ymm2, %ymm2              # ymm2 = ymm2[2,2,2,2]
    vmovdqu    %ymm2, 32464(%rsp)              # 32-byte Spill
    vpbroadcastb    .LCPI0_52(%rip), %ymm11 # ymm11 = [7,7,7,7,7,7,7,7,7,7,7,7,7,7,7,7,7,7,7,7,7,7,7,7,7,7,7,7,7,7,7,7]
    vpshufb    %ymm11, %ymm1, %ymm2
    vpermq    $170, %ymm2, %ymm2              # ymm2 = ymm2[2,2,2,2]
    vmovdqu    %ymm2, 32432(%rsp)              # 32-byte Spill
    vpshufd    $238, %xmm1, %xmm2              # xmm2 = xmm1[2,3,2,3]
    vpbroadcastb    %xmm2, %ymm2
    vmovdqu    %ymm2, 32400(%rsp)              # 32-byte Spill
    vpsrldq    $9, %xmm1, %xmm2                # xmm2 = xmm1[9,10,11,12,13,14,15],zero,zero,zero,zero,zero,zero,zero,zero,zero
    vpbroadcastb    %xmm2, %ymm2
    vmovdqu    %ymm2, 32368(%rsp)              # 32-byte Spill
    vpsrldq    $10, %xmm1, %xmm2               # xmm2 = xmm1[10,11,12,13,14,15],zero,zero,zero,zero,zero,zero,zero,zero,zero,zero
    vpbroadcastb    %xmm2, %ymm2
    vmovdqu    %ymm2, 32336(%rsp)              # 32-byte Spill
    vpsrldq    $11, %xmm1, %xmm2               # xmm2 = xmm1[11,12,13,14,15],zero,zero,zero,zero,zero,zero,zero,zero,zero,zero,zero
    vpbroadcastb    %xmm2, %ymm2
    vmovdqu    %ymm2, 32304(%rsp)              # 32-byte Spill
    vpshufd    $255, %xmm1, %xmm2              # xmm2 = xmm1[3,3,3,3]
    vpbroadcastb    %xmm2, %ymm2
    vmovdqu    %ymm2, 32272(%rsp)              # 32-byte Spill
    vpsrldq    $13, %xmm1, %xmm2               # xmm2 = xmm1[13,14,15],zero,zero,zero,zero,zero,zero,zero,zero,zero,zero,zero,zero,zero
    vpbroadcastb    %xmm2, %ymm2
    vmovdqu    %ymm2, 32240(%rsp)              # 32-byte Spill
    vpsrldq    $14, %xmm1, %xmm2               # xmm2 = xmm1[14,15],zero,zero,zero,zero,zero,zero,zero,zero,zero,zero,zero,zero,zero,zero
    vpbroadcastb    %xmm2, %ymm2
    vmovdqu    %ymm2, 32208(%rsp)              # 32-byte Spill
    vpsrldq    $15, %xmm1, %xmm2               # xmm2 = xmm1[15],zero,zero,zero,zero,zero,zero,zero,zero,zero,zero,zero,zero,zero,zero,zero
    vpbroadcastb    %xmm2, %ymm2
    vmovdqu    %ymm2, 32176(%rsp)              # 32-byte Spill
    vpbroadcastb    .LCPI0_53(%rip), %ymm14 # ymm14 = [8,8,8,8,8,8,8,8,8,8,8,8,8,8,8,8,8,8,8,8,8,8,8,8,8,8,8,8,8,8,8,8]
    vpshufb    %ymm14, %ymm1, %ymm2
    vpermq    $170, %ymm2, %ymm2              # ymm2 = ymm2[2,2,2,2]
    vmovdqu    %ymm2, 32144(%rsp)              # 32-byte Spill
    vpbroadcastb    .LCPI0_54(%rip), %ymm4  # ymm4 = [9,9,9,9,9,9,9,9,9,9,9,9,9,9,9,9,9,9,9,9,9,9,9,9,9,9,9,9,9,9,9,9]
    vpshufb    %ymm4, %ymm1, %ymm2
    vpermq    $170, %ymm2, %ymm2              # ymm2 = ymm2[2,2,2,2]
    vmovdqu    %ymm2, 32112(%rsp)              # 32-byte Spill
    vpbroadcastb    .LCPI0_55(%rip), %ymm5  # ymm5 = [10,10,10,10,10,10,10,10,10,10,10,10,10,10,10,10,10,10,10,10,10,10,10,10,10,10,10,10,10,10,10,10]
    vpshufb    %ymm5, %ymm1, %ymm2
    vpermq    $170, %ymm2, %ymm2              # ymm2 = ymm2[2,2,2,2]
    vmovdqu    %ymm2, 32080(%rsp)              # 32-byte Spill
    vpbroadcastb    .LCPI0_56(%rip), %ymm6  # ymm6 = [11,11,11,11,11,11,11,11,11,11,11,11,11,11,11,11,11,11,11,11,11,11,11,11,11,11,11,11,11,11,11,11]
    vpshufb    %ymm6, %ymm1, %ymm2
    vpermq    $170, %ymm2, %ymm2              # ymm2 = ymm2[2,2,2,2]
    vmovdqu    %ymm2, 32048(%rsp)              # 32-byte Spill
    vpbroadcastb    .LCPI0_57(%rip), %ymm7  # ymm7 = [12,12,12,12,12,12,12,12,12,12,12,12,12,12,12,12,12,12,12,12,12,12,12,12,12,12,12,12,12,12,12,12]
    vpshufb    %ymm7, %ymm1, %ymm2
    vpermq    $170, %ymm2, %ymm2              # ymm2 = ymm2[2,2,2,2]
    vmovdqu    %ymm2, 32016(%rsp)              # 32-byte Spill
    vpbroadcastb    .LCPI0_58(%rip), %ymm8  # ymm8 = [13,13,13,13,13,13,13,13,13,13,13,13,13,13,13,13,13,13,13,13,13,13,13,13,13,13,13,13,13,13,13,13]
    vpshufb    %ymm8, %ymm1, %ymm2
    vpermq    $170, %ymm2, %ymm2              # ymm2 = ymm2[2,2,2,2]
    vmovdqu    %ymm2, 31984(%rsp)              # 32-byte Spill
    vpbroadcastb    .LCPI0_59(%rip), %ymm3  # ymm3 = [14,14,14,14,14,14,14,14,14,14,14,14,14,14,14,14,14,14,14,14,14,14,14,14,14,14,14,14,14,14,14,14]
    vpshufb    %ymm3, %ymm1, %ymm2
    vpermq    $170, %ymm2, %ymm2              # ymm2 = ymm2[2,2,2,2]
    vmovdqu    %ymm2, 31952(%rsp)              # 32-byte Spill
    vpbroadcastb    %xmm1, %ymm2
    vmovdqu    %ymm2, 31920(%rsp)              # 32-byte Spill
    vpbroadcastb    .LCPI0_60(%rip), %ymm2  # ymm2 = [15,15,15,15,15,15,15,15,15,15,15,15,15,15,15,15,15,15,15,15,15,15,15,15,15,15,15,15,15,15,15,15]
    vpshufb    %ymm2, %ymm1, %ymm1
    vpermq    $170, %ymm1, %ymm1              # ymm1 = ymm1[2,2,2,2]
    vmovdqu    %ymm1, 31888(%rsp)              # 32-byte Spill
    vpsrlw    $8, %xmm0, %xmm1
    vpbroadcastb    %xmm1, %ymm1
    vmovdqu    %ymm1, 31856(%rsp)              # 32-byte Spill
    vpsrld    $16, %xmm0, %xmm1
    vpbroadcastb    %xmm1, %ymm1
    vmovdqu    %ymm1, 31824(%rsp)              # 32-byte Spill
    vpsrld    $24, %xmm0, %xmm1
    vpbroadcastb    %xmm1, %ymm1
    vmovdqu    %ymm1, 31792(%rsp)              # 32-byte Spill
    vpshufd    $85, %xmm0, %xmm1               # xmm1 = xmm0[1,1,1,1]
    vpbroadcastb    %xmm1, %ymm1
    vmovdqu    %ymm1, 31760(%rsp)              # 32-byte Spill
    vpsrlq    $40, %xmm0, %xmm1
    vpbroadcastb    %xmm1, %ymm1
    vmovdqu    %ymm1, 31728(%rsp)              # 32-byte Spill
    vpsrlq    $48, %xmm0, %xmm1
    vpbroadcastb    %xmm1, %ymm1
    vmovdqu    %ymm1, 31696(%rsp)              # 32-byte Spill
    vpsrlq    $56, %xmm0, %xmm1
    vpbroadcastb    %xmm1, %ymm1
    vmovdqu    %ymm1, 31664(%rsp)              # 32-byte Spill
    vextracti128    $1, %ymm0, %xmm1
    vpbroadcastb    %xmm1, %ymm1
    vmovdqu    %ymm1, 31632(%rsp)              # 32-byte Spill
    vpshufb    .LCPI0_8(%rip), %ymm0, %ymm1    # ymm1 = ymm0[1,1,1,1,1,1,1,1,u,u,u,u,u,u,u,u,17,17,17,17,17,17,17,17,u,u,u,u,u,u,u,u]
    vpermq    $170, %ymm1, %ymm1              # ymm1 = ymm1[2,2,2,2]
    vmovdqu    %ymm1, 31600(%rsp)              # 32-byte Spill
    vpshufb    %ymm10, %ymm0, %ymm1
    vpermq    $170, %ymm1, %ymm1              # ymm1 = ymm1[2,2,2,2]
    vmovdqu    %ymm1, 31568(%rsp)              # 32-byte Spill
    vpshufb    %ymm12, %ymm0, %ymm1
    vpermq    $170, %ymm1, %ymm1              # ymm1 = ymm1[2,2,2,2]
    vmovdqu    %ymm1, 31536(%rsp)              # 32-byte Spill
    vpshufb    %ymm15, %ymm0, %ymm1
    vpermq    $170, %ymm1, %ymm1              # ymm1 = ymm1[2,2,2,2]
    vmovdqu    %ymm1, 31504(%rsp)              # 32-byte Spill
    vpshufb    .LCPI0_12(%rip), %ymm0, %ymm1   # ymm1 = ymm0[5,5,5,5,5,5,5,5,u,u,u,u,u,u,u,u,21,21,21,21,21,21,21,21,u,u,u,u,u,u,u,u]
    vpermq    $170, %ymm1, %ymm1              # ymm1 = ymm1[2,2,2,2]
    vmovdqu    %ymm1, 31472(%rsp)              # 32-byte Spill
    vpshufb    %ymm9, %ymm0, %ymm1
    vpermq    $170, %ymm1, %ymm1              # ymm1 = ymm1[2,2,2,2]
    vmovdqu    %ymm1, 31440(%rsp)              # 32-byte Spill
    vpshufb    %ymm11, %ymm0, %ymm1
    vpbroadcastb    .LCPI0_46(%rip), %ymm11 # ymm11 = [1,1,1,1,1,1,1,1,1,1,1,1,1,1,1,1,1,1,1,1,1,1,1,1,1,1,1,1,1,1,1,1]
    vpermq    $170, %ymm1, %ymm1              # ymm1 = ymm1[2,2,2,2]
    vmovdqu    %ymm1, 31408(%rsp)              # 32-byte Spill
    vpshufd    $238, %xmm0, %xmm1              # xmm1 = xmm0[2,3,2,3]
    vpbroadcastb    %xmm1, %ymm1
    vmovdqu    %ymm1, 31376(%rsp)              # 32-byte Spill
    vpsrldq    $9, %xmm0, %xmm1                # xmm1 = xmm0[9,10,11,12,13,14,15],zero,zero,zero,zero,zero,zero,zero,zero,zero
    vpbroadcastb    %xmm1, %ymm1
    vmovdqu    %ymm1, 31344(%rsp)              # 32-byte Spill
    vpsrldq    $10, %xmm0, %xmm1               # xmm1 = xmm0[10,11,12,13,14,15],zero,zero,zero,zero,zero,zero,zero,zero,zero,zero
    vpbroadcastb    %xmm1, %ymm1
    vmovdqu    %ymm1, 31312(%rsp)              # 32-byte Spill
    vpsrldq    $11, %xmm0, %xmm1               # xmm1 = xmm0[11,12,13,14,15],zero,zero,zero,zero,zero,zero,zero,zero,zero,zero,zero
    vpbroadcastb    %xmm1, %ymm1
    vmovdqu    %ymm1, 31280(%rsp)              # 32-byte Spill
    vpshufd    $255, %xmm0, %xmm1              # xmm1 = xmm0[3,3,3,3]
    vpbroadcastb    %xmm1, %ymm1
    vmovdqu    %ymm1, 31248(%rsp)              # 32-byte Spill
    vpsrldq    $13, %xmm0, %xmm1               # xmm1 = xmm0[13,14,15],zero,zero,zero,zero,zero,zero,zero,zero,zero,zero,zero,zero,zero
    vpbroadcastb    %xmm1, %ymm1
    vmovdqu    %ymm1, 31216(%rsp)              # 32-byte Spill
    vpsrldq    $14, %xmm0, %xmm1               # xmm1 = xmm0[14,15],zero,zero,zero,zero,zero,zero,zero,zero,zero,zero,zero,zero,zero,zero
    vpbroadcastb    %xmm1, %ymm1
    vmovdqu    %ymm1, 31184(%rsp)              # 32-byte Spill
    vpsrldq    $15, %xmm0, %xmm1               # xmm1 = xmm0[15],zero,zero,zero,zero,zero,zero,zero,zero,zero,zero,zero,zero,zero,zero,zero
    vpbroadcastb    %xmm1, %ymm1
    vmovdqu    %ymm1, 31152(%rsp)              # 32-byte Spill
    vpshufb    %ymm14, %ymm0, %ymm1
    vpermq    $170, %ymm1, %ymm1              # ymm1 = ymm1[2,2,2,2]
    vmovdqu    %ymm1, 31120(%rsp)              # 32-byte Spill
    vpshufb    %ymm4, %ymm0, %ymm1
    vpermq    $170, %ymm1, %ymm1              # ymm1 = ymm1[2,2,2,2]
    vmovdqu    %ymm1, 31088(%rsp)              # 32-byte Spill
    vpshufb    %ymm5, %ymm0, %ymm1
    vpermq    $170, %ymm1, %ymm1              # ymm1 = ymm1[2,2,2,2]
    vmovdqu    %ymm1, 31056(%rsp)              # 32-byte Spill
    vpshufb    %ymm6, %ymm0, %ymm1
    vpermq    $170, %ymm1, %ymm1              # ymm1 = ymm1[2,2,2,2]
    vmovdqu    %ymm1, 31024(%rsp)              # 32-byte Spill
    vpshufb    %ymm7, %ymm0, %ymm1
    vpermq    $170, %ymm1, %ymm1              # ymm1 = ymm1[2,2,2,2]
    vmovdqu    %ymm1, 30992(%rsp)              # 32-byte Spill
    vpshufb    %ymm8, %ymm0, %ymm1
    vpermq    $170, %ymm1, %ymm1              # ymm1 = ymm1[2,2,2,2]
    vmovdqu    %ymm1, 30960(%rsp)              # 32-byte Spill
    vpshufb    %ymm3, %ymm0, %ymm1
    vpermq    $170, %ymm1, %ymm1              # ymm1 = ymm1[2,2,2,2]
    vmovdqu    %ymm1, 30928(%rsp)              # 32-byte Spill
    vpbroadcastb    %xmm0, %ymm1
    vmovdqu    %ymm1, 30896(%rsp)              # 32-byte Spill
    vpshufb    %ymm2, %ymm0, %ymm0
    vpermq    $170, %ymm0, %ymm0              # ymm0 = ymm0[2,2,2,2]
    vmovdqu    %ymm0, 30864(%rsp)              # 32-byte Spill
    movl    %edi, %esi
    orl    $1, %esi
    movl    %edi, %ebx
    orl    $2, %ebx
    movl    %edi, %r8d
    orl    $3, %r8d
    movl    %edi, %r9d
    orl    $4, %r9d
    movl    %edi, %r10d
    orl    $5, %r10d
    movl    %edi, %r11d
    orl    $6, %r11d
    movl    %edi, %ebp
    orl    $7, %ebp
    movl    %edi, %r15d
    orl    $8, %r15d
    movl    %edi, %r14d
    orl    $9, %r14d
    movl    %edi, %eax
    orl    $10, %eax
    movl    %eax, 352(%rsp)                 # 4-byte Spill
    movl    %edi, %r12d
    orl    $11, %r12d
    movl    %edi, %eax
    orl    $12, %eax
    movl    %eax, 384(%rsp)                 # 4-byte Spill
    movl    %edi, %eax
    orl    $13, %eax
    movl    %eax, 416(%rsp)                 # 4-byte Spill
    movl    %edi, %eax
    orl    $14, %eax
    movl    %eax, 448(%rsp)                 # 4-byte Spill
    movl    %edi, %eax
    orl    $15, %eax
    movl    %eax, 480(%rsp)                 # 4-byte Spill
    movl    %edi, %eax
    orl    $16, %eax
    movl    %eax, 512(%rsp)                 # 4-byte Spill
    movl    %edi, %r13d
    orl    $17, %r13d
    movl    %edi, %eax
    orl    $18, %eax
    movl    %eax, 544(%rsp)                 # 4-byte Spill
    movl    %edi, %eax
    orl    $19, %eax
    movl    %eax, 608(%rsp)                 # 4-byte Spill
    movl    %edi, %eax
    orl    $20, %eax
    movl    %eax, 640(%rsp)                 # 4-byte Spill
    movl    %edi, %eax
    orl    $21, %eax
    movl    %eax, 672(%rsp)                 # 4-byte Spill
    movl    %edi, %eax
    orl    $22, %eax
    movl    %eax, 704(%rsp)                 # 4-byte Spill
    movl    %edi, %eax
    orl    $23, %eax
    movl    %eax, 736(%rsp)                 # 4-byte Spill
    movl    %edi, %eax
    orl    $24, %eax
    movl    %eax, 768(%rsp)                 # 4-byte Spill
    movl    %edi, %eax
    orl    $25, %eax
    movl    %eax, 800(%rsp)                 # 4-byte Spill
    movl    %edi, %eax
    orl    $26, %eax
    movl    %eax, 832(%rsp)                 # 4-byte Spill
    movl    %edi, %eax
    orl    $27, %eax
    movl    %eax, 864(%rsp)                 # 4-byte Spill
    movl    %edi, %eax
    orl    $28, %eax
    movl    %eax, 896(%rsp)                 # 4-byte Spill
    movl    %edi, %eax
    orl    $29, %eax
    movl    %eax, 928(%rsp)                 # 4-byte Spill
    movl    %edi, %eax
    orl    $30, %eax
    movl    %eax, 960(%rsp)                 # 4-byte Spill
    movl    %edi, %eax
    orl    $31, %eax
    movl    %eax, 992(%rsp)                 # 4-byte Spill
    movl    %edi, %eax
    orl    $32, %eax
    movl    %eax, 1024(%rsp)                # 4-byte Spill
    movl    %edi, %eax
    orl    $33, %eax
    movl    %eax, 1056(%rsp)                # 4-byte Spill
    movl    %edi, %eax
    orl    $34, %eax
    movl    %eax, 1088(%rsp)                # 4-byte Spill
    movl    %edi, %eax
    orl    $35, %eax
    movl    %eax, 1120(%rsp)                # 4-byte Spill
    movl    %edi, %eax
    orl    $36, %eax
    movl    %eax, 1152(%rsp)                # 4-byte Spill
    movl    %edi, %eax
    orl    $37, %eax
    movl    %eax, 1184(%rsp)                # 4-byte Spill
    movl    %edi, %eax
    orl    $38, %eax
    movl    %eax, 1216(%rsp)                # 4-byte Spill
    movl    %edi, %eax
    orl    $39, %eax
    movl    %eax, 1248(%rsp)                # 4-byte Spill
    movl    %edi, %eax
    orl    $40, %eax
    movl    %eax, 1280(%rsp)                # 4-byte Spill
    movl    %edi, %eax
    orl    $41, %eax
    movl    %eax, 1312(%rsp)                # 4-byte Spill
    movl    %edi, %eax
    orl    $42, %eax
    movl    %eax, 1344(%rsp)                # 4-byte Spill
    movl    %edi, %eax
    orl    $43, %eax
    movl    %eax, 1376(%rsp)                # 4-byte Spill
    movl    %edi, %eax
    orl    $44, %eax
    movl    %eax, 1408(%rsp)                # 4-byte Spill
    movl    %edi, %eax
    orl    $45, %eax
    movl    %eax, 1440(%rsp)                # 4-byte Spill
    movl    %edi, %eax
    orl    $46, %eax
    movl    %eax, 1472(%rsp)                # 4-byte Spill
    movl    %edi, %eax
    orl    $47, %eax
    movl    %eax, 1504(%rsp)                # 4-byte Spill
    movl    %edi, %eax
    orl    $48, %eax
    movl    %eax, 1536(%rsp)                # 4-byte Spill
    movl    %edi, %eax
    orl    $49, %eax
    movl    %eax, 1568(%rsp)                # 4-byte Spill
    movl    %edi, %eax
    orl    $50, %eax
    movl    %eax, 1600(%rsp)                # 4-byte Spill
    movl    %edi, %eax
    orl    $51, %eax
    movl    %eax, 1632(%rsp)                # 4-byte Spill
    movl    %edi, %eax
    orl    $52, %eax
    movl    %eax, 1664(%rsp)                # 4-byte Spill
    movl    %edi, %eax
    orl    $53, %eax
    movl    %eax, 1696(%rsp)                # 4-byte Spill
    movl    %edi, %eax
    orl    $54, %eax
    movl    %eax, 1728(%rsp)                # 4-byte Spill
    movl    %edi, %eax
    orl    $55, %eax
    movl    %eax, 1760(%rsp)                # 4-byte Spill
    movl    %edi, %eax
    orl    $56, %eax
    movl    %eax, 1792(%rsp)                # 4-byte Spill
    movl    %edi, %eax
    orl    $57, %eax
    movl    %eax, 1824(%rsp)                # 4-byte Spill
    movl    %edi, %eax
    orl    $58, %eax
    movl    %eax, 1856(%rsp)                # 4-byte Spill
    movl    %edi, %eax
    orl    $59, %eax
    movl    %eax, 1888(%rsp)                # 4-byte Spill
    movl    %edi, %eax
    orl    $60, %eax
    movl    %eax, 1920(%rsp)                # 4-byte Spill
    movl    %edi, %eax
    orl    $61, %eax
    movl    %eax, 8(%rsp)                   # 4-byte Spill
    movl    %edi, %eax
    orl    $62, %eax
    movl    %eax, 576(%rsp)                 # 4-byte Spill
    movl    34880(%rsp), %edx
    movl    %edx, %eax
    imull    %edi, %eax
    orl    $63, %edi
    cltq
    movq    22008(%rsp), %rcx               # 8-byte Reload
    leaq    (%rcx,%rax,4), %rax
    movq    %rax, 22544(%rsp)               # 8-byte Spill
    imull    %edx, %esi
    movslq    %esi, %rax
    leaq    (%rcx,%rax,4), %rax
    movq    %rax, 22536(%rsp)               # 8-byte Spill
    imull    %edx, %ebx
    movslq    %ebx, %rax
    leaq    (%rcx,%rax,4), %rax
    movq    %rax, 22528(%rsp)               # 8-byte Spill
    imull    %edx, %r8d
    movslq    %r8d, %rax
    leaq    (%rcx,%rax,4), %rax
    movq    %rax, 22520(%rsp)               # 8-byte Spill
    imull    %edx, %r9d
    movslq    %r9d, %rax
    movl    34872(%rsp), %esi
    movq    %rsi, %r9
    leaq    (%rcx,%rax,4), %rax
    movq    %rax, 22512(%rsp)               # 8-byte Spill
    imull    %edx, %r10d
    movslq    %r10d, %rax
    leaq    (%rcx,%rax,4), %rax
    movq    %rax, 22504(%rsp)               # 8-byte Spill
    imull    %edx, %r11d
    movslq    %r11d, %rax
    leaq    (%rcx,%rax,4), %rax
    movq    %rax, 22496(%rsp)               # 8-byte Spill
    imull    %edx, %ebp
    movslq    %ebp, %rax
    leaq    (%rcx,%rax,4), %rax
    movq    %rax, 22488(%rsp)               # 8-byte Spill
    imull    %edx, %r15d
    movslq    %r15d, %rax
    leaq    (%rcx,%rax,4), %rax
    movq    %rax, 22480(%rsp)               # 8-byte Spill
    imull    %edx, %r14d
    movslq    %r14d, %rax
    leaq    (%rcx,%rax,4), %rax
    movq    %rax, 22472(%rsp)               # 8-byte Spill
    movl    352(%rsp), %eax                 # 4-byte Reload
    imull    %edx, %eax
    cltq
    leaq    (%rcx,%rax,4), %rax
    movq    %rax, 22464(%rsp)               # 8-byte Spill
    imull    %edx, %r12d
    movslq    %r12d, %rax
    leaq    (%rcx,%rax,4), %rax
    movq    %rax, 22456(%rsp)               # 8-byte Spill
    movl    384(%rsp), %eax                 # 4-byte Reload
    imull    %edx, %eax
    cltq
    leaq    (%rcx,%rax,4), %rax
    movq    %rax, 22448(%rsp)               # 8-byte Spill
    movl    416(%rsp), %eax                 # 4-byte Reload
    imull    %edx, %eax
    cltq
    leaq    (%rcx,%rax,4), %rax
    movq    %rax, 22440(%rsp)               # 8-byte Spill
    movl    448(%rsp), %eax                 # 4-byte Reload
    imull    %edx, %eax
    cltq
    leaq    (%rcx,%rax,4), %rax
    movq    %rax, 22432(%rsp)               # 8-byte Spill
    movl    480(%rsp), %eax                 # 4-byte Reload
    imull    %edx, %eax
    cltq
    leaq    (%rcx,%rax,4), %rax
    movq    %rax, 22424(%rsp)               # 8-byte Spill
    movl    512(%rsp), %eax                 # 4-byte Reload
    imull    %edx, %eax
    cltq
    leaq    (%rcx,%rax,4), %rax
    movq    %rax, 22416(%rsp)               # 8-byte Spill
    imull    %edx, %r13d
    movslq    %r13d, %rax
    leaq    (%rcx,%rax,4), %rax
    movq    %rax, 22408(%rsp)               # 8-byte Spill
    movl    544(%rsp), %eax                 # 4-byte Reload
    imull    %edx, %eax
    cltq
    leaq    (%rcx,%rax,4), %rax
    movq    %rax, 22400(%rsp)               # 8-byte Spill
    movl    608(%rsp), %eax                 # 4-byte Reload
    imull    %edx, %eax
    cltq
    leaq    (%rcx,%rax,4), %rax
    movq    %rax, 22392(%rsp)               # 8-byte Spill
    movl    640(%rsp), %eax                 # 4-byte Reload
    imull    %edx, %eax
    cltq
    leaq    (%rcx,%rax,4), %rax
    movq    %rax, 22384(%rsp)               # 8-byte Spill
    movl    672(%rsp), %eax                 # 4-byte Reload
    imull    %edx, %eax
    cltq
    leaq    (%rcx,%rax,4), %rax
    movq    %rax, 22376(%rsp)               # 8-byte Spill
    movl    704(%rsp), %eax                 # 4-byte Reload
    imull    %edx, %eax
    cltq
    leaq    (%rcx,%rax,4), %rax
    movq    %rax, 22368(%rsp)               # 8-byte Spill
    movl    736(%rsp), %eax                 # 4-byte Reload
    imull    %edx, %eax
    cltq
    leaq    (%rcx,%rax,4), %rax
    movq    %rax, 22360(%rsp)               # 8-byte Spill
    movl    768(%rsp), %eax                 # 4-byte Reload
    imull    %edx, %eax
    cltq
    leaq    (%rcx,%rax,4), %rax
    movq    %rax, 22352(%rsp)               # 8-byte Spill
    movl    800(%rsp), %eax                 # 4-byte Reload
    imull    %edx, %eax
    cltq
    leaq    (%rcx,%rax,4), %rax
    movq    %rax, 22344(%rsp)               # 8-byte Spill
    movl    832(%rsp), %eax                 # 4-byte Reload
    imull    %edx, %eax
    cltq
    leaq    (%rcx,%rax,4), %rax
    movq    %rax, 22336(%rsp)               # 8-byte Spill
    movl    864(%rsp), %eax                 # 4-byte Reload
    imull    %edx, %eax
    cltq
    leaq    (%rcx,%rax,4), %rax
    movq    %rax, 22328(%rsp)               # 8-byte Spill
    movl    896(%rsp), %eax                 # 4-byte Reload
    imull    %edx, %eax
    cltq
    leaq    (%rcx,%rax,4), %rax
    movq    %rax, 22320(%rsp)               # 8-byte Spill
    movl    928(%rsp), %eax                 # 4-byte Reload
    imull    %edx, %eax
    cltq
    leaq    (%rcx,%rax,4), %rax
    movq    %rax, 22312(%rsp)               # 8-byte Spill
    movl    960(%rsp), %eax                 # 4-byte Reload
    imull    %edx, %eax
    cltq
    leaq    (%rcx,%rax,4), %rax
    movq    %rax, 22304(%rsp)               # 8-byte Spill
    movl    992(%rsp), %eax                 # 4-byte Reload
    imull    %edx, %eax
    cltq
    leaq    (%rcx,%rax,4), %rax
    movq    %rax, 22296(%rsp)               # 8-byte Spill
    movl    1024(%rsp), %eax                # 4-byte Reload
    imull    %edx, %eax
    cltq
    leaq    (%rcx,%rax,4), %rax
    movq    %rax, 22288(%rsp)               # 8-byte Spill
    movl    1056(%rsp), %eax                # 4-byte Reload
    imull    %edx, %eax
    cltq
    leaq    (%rcx,%rax,4), %rax
    movq    %rax, 22280(%rsp)               # 8-byte Spill
    movl    1088(%rsp), %eax                # 4-byte Reload
    imull    %edx, %eax
    cltq
    leaq    (%rcx,%rax,4), %rax
    movq    %rax, 22272(%rsp)               # 8-byte Spill
    movl    1120(%rsp), %eax                # 4-byte Reload
    imull    %edx, %eax
    cltq
    leaq    (%rcx,%rax,4), %rax
    movq    %rax, 22264(%rsp)               # 8-byte Spill
    movl    1152(%rsp), %eax                # 4-byte Reload
    imull    %edx, %eax
    cltq
    leaq    (%rcx,%rax,4), %rax
    movq    %rax, 22256(%rsp)               # 8-byte Spill
    movl    1184(%rsp), %eax                # 4-byte Reload
    imull    %edx, %eax
    cltq
    leaq    (%rcx,%rax,4), %rax
    movq    %rax, 22248(%rsp)               # 8-byte Spill
    movl    1216(%rsp), %eax                # 4-byte Reload
    imull    %edx, %eax
    cltq
    leaq    (%rcx,%rax,4), %rax
    movq    %rax, 22240(%rsp)               # 8-byte Spill
    movl    1248(%rsp), %eax                # 4-byte Reload
    imull    %edx, %eax
    cltq
    leaq    (%rcx,%rax,4), %rax
    movq    %rax, 22232(%rsp)               # 8-byte Spill
    movl    1280(%rsp), %eax                # 4-byte Reload
    imull    %edx, %eax
    cltq
    leaq    (%rcx,%rax,4), %rax
    movq    %rax, 22224(%rsp)               # 8-byte Spill
    movl    1312(%rsp), %eax                # 4-byte Reload
    imull    %edx, %eax
    cltq
    leaq    (%rcx,%rax,4), %rax
    movq    %rax, 22216(%rsp)               # 8-byte Spill
    movl    1344(%rsp), %eax                # 4-byte Reload
    imull    %edx, %eax
    cltq
    leaq    (%rcx,%rax,4), %rax
    movq    %rax, 22208(%rsp)               # 8-byte Spill
    movl    1376(%rsp), %eax                # 4-byte Reload
    imull    %edx, %eax
    cltq
    leaq    (%rcx,%rax,4), %rax
    movq    %rax, 22200(%rsp)               # 8-byte Spill
    movl    1408(%rsp), %eax                # 4-byte Reload
    imull    %edx, %eax
    cltq
    leaq    (%rcx,%rax,4), %rax
    movq    %rax, 22192(%rsp)               # 8-byte Spill
    movl    1440(%rsp), %eax                # 4-byte Reload
    imull    %edx, %eax
    cltq
    leaq    (%rcx,%rax,4), %rax
    movq    %rax, 22184(%rsp)               # 8-byte Spill
    movl    1472(%rsp), %eax                # 4-byte Reload
    imull    %edx, %eax
    cltq
    leaq    (%rcx,%rax,4), %rax
    movq    %rax, 22176(%rsp)               # 8-byte Spill
    movl    1504(%rsp), %eax                # 4-byte Reload
    imull    %edx, %eax
    cltq
    leaq    (%rcx,%rax,4), %rax
    movq    %rax, 22168(%rsp)               # 8-byte Spill
    movl    1536(%rsp), %eax                # 4-byte Reload
    imull    %edx, %eax
    cltq
    leaq    (%rcx,%rax,4), %rax
    movq    %rax, 22160(%rsp)               # 8-byte Spill
    movl    1568(%rsp), %eax                # 4-byte Reload
    imull    %edx, %eax
    cltq
    leaq    (%rcx,%rax,4), %rax
    movq    %rax, 22152(%rsp)               # 8-byte Spill
    movl    1600(%rsp), %eax                # 4-byte Reload
    imull    %edx, %eax
    cltq
    leaq    (%rcx,%rax,4), %rax
    movq    %rax, 22144(%rsp)               # 8-byte Spill
    movl    1632(%rsp), %eax                # 4-byte Reload
    imull    %edx, %eax
    cltq
    leaq    (%rcx,%rax,4), %rax
    movq    %rax, 22136(%rsp)               # 8-byte Spill
    movl    1664(%rsp), %eax                # 4-byte Reload
    imull    %edx, %eax
    cltq
    leaq    (%rcx,%rax,4), %rax
    movq    %rax, 22128(%rsp)               # 8-byte Spill
    movl    1696(%rsp), %eax                # 4-byte Reload
    imull    %edx, %eax
    cltq
    leaq    (%rcx,%rax,4), %rax
    movq    %rax, 22120(%rsp)               # 8-byte Spill
    movl    1728(%rsp), %eax                # 4-byte Reload
    imull    %edx, %eax
    cltq
    leaq    (%rcx,%rax,4), %rax
    movq    %rax, 22112(%rsp)               # 8-byte Spill
    movl    1760(%rsp), %eax                # 4-byte Reload
    imull    %edx, %eax
    cltq
    leaq    (%rcx,%rax,4), %rax
    movq    %rax, 22104(%rsp)               # 8-byte Spill
    movl    1792(%rsp), %eax                # 4-byte Reload
    imull    %edx, %eax
    cltq
    leaq    (%rcx,%rax,4), %rax
    movq    %rax, 22096(%rsp)               # 8-byte Spill
    movl    1824(%rsp), %eax                # 4-byte Reload
    imull    %edx, %eax
    cltq
    leaq    (%rcx,%rax,4), %rax
    movq    %rax, 22088(%rsp)               # 8-byte Spill
    movl    1856(%rsp), %eax                # 4-byte Reload
    imull    %edx, %eax
    cltq
    leaq    (%rcx,%rax,4), %rax
    movq    %rax, 22080(%rsp)               # 8-byte Spill
    movl    1888(%rsp), %eax                # 4-byte Reload
    imull    %edx, %eax
    cltq
    leaq    (%rcx,%rax,4), %rax
    movq    %rax, 22072(%rsp)               # 8-byte Spill
    movl    1920(%rsp), %eax                # 4-byte Reload
    imull    %edx, %eax
    cltq
    leaq    (%rcx,%rax,4), %rax
    movq    %rax, 22064(%rsp)               # 8-byte Spill
    movl    8(%rsp), %eax                   # 4-byte Reload
    imull    %edx, %eax
    cltq
    leaq    (%rcx,%rax,4), %rax
    movq    %rax, 22056(%rsp)               # 8-byte Spill
    movl    576(%rsp), %eax                 # 4-byte Reload
    imull    %edx, %eax
    cltq
    leaq    (%rcx,%rax,4), %rax
    movq    %rax, 22048(%rsp)               # 8-byte Spill
    imull    %edx, %edi
    movslq    %edi, %rax
    leaq    (%rcx,%rax,4), %rax
    movq    %rax, 22040(%rsp)               # 8-byte Spill
    xorl    %ecx, %ecx
    jmp    .LBB0_4
    .p2align    4
.LBB0_5:                                #   in Loop: Header=BB0_4 Depth=2
    vpxor    %xmm0, %xmm0, %xmm0
    vmovdqu    %ymm0, 22896(%rsp)              # 32-byte Spill
    vmovdqu    %ymm0, 20592(%rsp)              # 32-byte Spill
    vmovdqu    %ymm0, 1984(%rsp)               # 32-byte Spill
    vmovdqu    %ymm0, 2016(%rsp)               # 32-byte Spill
    vmovdqu    %ymm0, 22992(%rsp)              # 32-byte Spill
    vmovdqu    %ymm0, 23024(%rsp)              # 32-byte Spill
    vmovdqu    %ymm0, 22928(%rsp)              # 32-byte Spill
    vmovdqu    %ymm0, 22960(%rsp)              # 32-byte Spill
    vmovdqu    %ymm0, 23248(%rsp)              # 32-byte Spill
    vmovdqu    %ymm0, 23216(%rsp)              # 32-byte Spill
    vmovdqu    %ymm0, 23184(%rsp)              # 32-byte Spill
    vmovdqu    %ymm0, 23152(%rsp)              # 32-byte Spill
    vmovdqu    %ymm0, 21168(%rsp)              # 32-byte Spill
    vmovdqu    %ymm0, 23120(%rsp)              # 32-byte Spill
    vmovdqu    %ymm0, 23088(%rsp)              # 32-byte Spill
    vmovdqu    %ymm0, 23056(%rsp)              # 32-byte Spill
    vmovdqu    %ymm0, 21264(%rsp)              # 32-byte Spill
    vmovdqu    %ymm0, 23472(%rsp)              # 32-byte Spill
    vmovdqu    %ymm0, 23440(%rsp)              # 32-byte Spill
    vmovdqu    %ymm0, 23408(%rsp)              # 32-byte Spill
    vmovdqu    %ymm0, 23376(%rsp)              # 32-byte Spill
    vmovdqu    %ymm0, 23344(%rsp)              # 32-byte Spill
    vmovdqu    %ymm0, 23312(%rsp)              # 32-byte Spill
    vmovdqu    %ymm0, 23280(%rsp)              # 32-byte Spill
    vmovdqu    %ymm0, 23696(%rsp)              # 32-byte Spill
    vmovdqu    %ymm0, 23664(%rsp)              # 32-byte Spill
    vmovdqu    %ymm0, 23632(%rsp)              # 32-byte Spill
    vmovdqu    %ymm0, 23600(%rsp)              # 32-byte Spill
    vmovdqu    %ymm0, 23568(%rsp)              # 32-byte Spill
    vmovdqu    %ymm0, 23536(%rsp)              # 32-byte Spill
    vmovdqu    %ymm0, 23504(%rsp)              # 32-byte Spill
    vmovdqu    %ymm0, 12704(%rsp)              # 32-byte Spill
    vmovdqu    %ymm0, 23920(%rsp)              # 32-byte Spill
    vmovdqu    %ymm0, 23888(%rsp)              # 32-byte Spill
    vmovdqu    %ymm0, 23856(%rsp)              # 32-byte Spill
    vmovdqu    %ymm0, 23824(%rsp)              # 32-byte Spill
    vmovdqu    %ymm0, 23792(%rsp)              # 32-byte Spill
    vmovdqu    %ymm0, 23760(%rsp)              # 32-byte Spill
    vmovdqu    %ymm0, 23728(%rsp)              # 32-byte Spill
    vmovdqu    %ymm0, 20752(%rsp)              # 32-byte Spill
    vmovdqu    %ymm0, 24176(%rsp)              # 32-byte Spill
    vmovdqu    %ymm0, 24144(%rsp)              # 32-byte Spill
    vmovdqu    %ymm0, 24112(%rsp)              # 32-byte Spill
    vmovdqu    %ymm0, 24080(%rsp)              # 32-byte Spill
    vmovdqu    %ymm0, 24048(%rsp)              # 32-byte Spill
    vmovdqu    %ymm0, 24016(%rsp)              # 32-byte Spill
    vmovdqu    %ymm0, 23984(%rsp)              # 32-byte Spill
    vmovdqu    %ymm0, 23952(%rsp)              # 32-byte Spill
    vmovdqu    %ymm0, 24400(%rsp)              # 32-byte Spill
    vmovdqu    %ymm0, 24368(%rsp)              # 32-byte Spill
    vmovdqu    %ymm0, 24336(%rsp)              # 32-byte Spill
    vmovdqu    %ymm0, 24304(%rsp)              # 32-byte Spill
    vmovdqu    %ymm0, 24272(%rsp)              # 32-byte Spill
    vmovdqu    %ymm0, 24240(%rsp)              # 32-byte Spill
    vmovdqu    %ymm0, 24208(%rsp)              # 32-byte Spill
    vmovdqu    %ymm0, 16224(%rsp)              # 32-byte Spill
    vmovdqu    %ymm0, 24656(%rsp)              # 32-byte Spill
    vmovdqu    %ymm0, 24624(%rsp)              # 32-byte Spill
    vmovdqu    %ymm0, 24592(%rsp)              # 32-byte Spill
    vmovdqu    %ymm0, 24560(%rsp)              # 32-byte Spill
    vmovdqu    %ymm0, 24528(%rsp)              # 32-byte Spill
    vmovdqu    %ymm0, 24496(%rsp)              # 32-byte Spill
    vmovdqu    %ymm0, 24464(%rsp)              # 32-byte Spill
    vmovdqu    %ymm0, 24432(%rsp)              # 32-byte Spill
    vmovdqu    %ymm0, 24880(%rsp)              # 32-byte Spill
    vmovdqu    %ymm0, 24848(%rsp)              # 32-byte Spill
    vmovdqu    %ymm0, 24816(%rsp)              # 32-byte Spill
    vmovdqu    %ymm0, 24784(%rsp)              # 32-byte Spill
    vmovdqu    %ymm0, 24752(%rsp)              # 32-byte Spill
    vmovdqu    %ymm0, 24720(%rsp)              # 32-byte Spill
    vmovdqu    %ymm0, 24688(%rsp)              # 32-byte Spill
    vmovdqu    %ymm0, 14272(%rsp)              # 32-byte Spill
    vmovdqu    %ymm0, 21360(%rsp)              # 32-byte Spill
    vmovdqu    %ymm0, 25104(%rsp)              # 32-byte Spill
    vmovdqu    %ymm0, 25072(%rsp)              # 32-byte Spill
    vmovdqu    %ymm0, 25040(%rsp)              # 32-byte Spill
    vmovdqu    %ymm0, 25008(%rsp)              # 32-byte Spill
    vmovdqu    %ymm0, 24976(%rsp)              # 32-byte Spill
    vmovdqu    %ymm0, 24944(%rsp)              # 32-byte Spill
    vmovdqu    %ymm0, 24912(%rsp)              # 32-byte Spill
    vmovdqu    %ymm0, 14304(%rsp)              # 32-byte Spill
    vmovdqu    %ymm0, 25136(%rsp)              # 32-byte Spill
    vmovdqu    %ymm0, 25168(%rsp)              # 32-byte Spill
    vmovdqu    %ymm0, 25200(%rsp)              # 32-byte Spill
    vmovdqu    %ymm0, 25232(%rsp)              # 32-byte Spill
    vmovdqu    %ymm0, 25264(%rsp)              # 32-byte Spill
    vmovdqu    %ymm0, 25296(%rsp)              # 32-byte Spill
    vmovdqu    %ymm0, 25328(%rsp)              # 32-byte Spill
    vmovdqu    %ymm0, 21296(%rsp)              # 32-byte Spill
    vmovdqu    %ymm0, 19328(%rsp)              # 32-byte Spill
    vmovdqu    %ymm0, 25360(%rsp)              # 32-byte Spill
    vmovdqu    %ymm0, 25392(%rsp)              # 32-byte Spill
    vmovdqu    %ymm0, 25424(%rsp)              # 32-byte Spill
    vmovdqu    %ymm0, 25456(%rsp)              # 32-byte Spill
    vmovdqu    %ymm0, 25488(%rsp)              # 32-byte Spill
    vmovdqu    %ymm0, 25520(%rsp)              # 32-byte Spill
    vmovdqu    %ymm0, 19616(%rsp)              # 32-byte Spill
    vmovdqu    %ymm0, 25552(%rsp)              # 32-byte Spill
    vmovdqu    %ymm0, 25584(%rsp)              # 32-byte Spill
    vmovdqu    %ymm0, 25616(%rsp)              # 32-byte Spill
    vmovdqu    %ymm0, 25648(%rsp)              # 32-byte Spill
    vmovdqu    %ymm0, 25680(%rsp)              # 32-byte Spill
    vmovdqu    %ymm0, 25712(%rsp)              # 32-byte Spill
    vmovdqu    %ymm0, 25744(%rsp)              # 32-byte Spill
    vmovdqu    %ymm0, 25776(%rsp)              # 32-byte Spill
    vmovdqu    %ymm0, 20784(%rsp)              # 32-byte Spill
    vmovdqu    %ymm0, 25808(%rsp)              # 32-byte Spill
    vmovdqu    %ymm0, 25840(%rsp)              # 32-byte Spill
    vmovdqu    %ymm0, 25872(%rsp)              # 32-byte Spill
    vmovdqu    %ymm0, 25904(%rsp)              # 32-byte Spill
    vmovdqu    %ymm0, 25936(%rsp)              # 32-byte Spill
    vmovdqu    %ymm0, 25968(%rsp)              # 32-byte Spill
    vmovdqu    %ymm0, 18544(%rsp)              # 32-byte Spill
    vmovdqu    %ymm0, 26000(%rsp)              # 32-byte Spill
    vmovdqu    %ymm0, 26032(%rsp)              # 32-byte Spill
    vmovdqu    %ymm0, 26064(%rsp)              # 32-byte Spill
    vmovdqu    %ymm0, 26096(%rsp)              # 32-byte Spill
    vmovdqu    %ymm0, 26128(%rsp)              # 32-byte Spill
    vmovdqu    %ymm0, 26160(%rsp)              # 32-byte Spill
    vmovdqu    %ymm0, 26192(%rsp)              # 32-byte Spill
    vmovdqu    %ymm0, 26224(%rsp)              # 32-byte Spill
    vmovdqu    %ymm0, 26256(%rsp)              # 32-byte Spill
    vmovdqu    %ymm0, 26288(%rsp)              # 32-byte Spill
    vmovdqu    %ymm0, 26320(%rsp)              # 32-byte Spill
    vmovdqu    %ymm0, 26352(%rsp)              # 32-byte Spill
    vmovdqu    %ymm0, 26384(%rsp)              # 32-byte Spill
    vmovdqu    %ymm0, 26416(%rsp)              # 32-byte Spill
    vmovdqu    %ymm0, 26448(%rsp)              # 32-byte Spill
    vmovdqu    %ymm0, 26480(%rsp)              # 32-byte Spill
    vmovdqu    %ymm0, 26512(%rsp)              # 32-byte Spill
    vmovdqu    %ymm0, 26544(%rsp)              # 32-byte Spill
    vmovdqu    %ymm0, 26576(%rsp)              # 32-byte Spill
    vmovdqu    %ymm0, 26608(%rsp)              # 32-byte Spill
    vmovdqu    %ymm0, 26640(%rsp)              # 32-byte Spill
    vmovdqu    %ymm0, 26672(%rsp)              # 32-byte Spill
    vmovdqu    %ymm0, 16256(%rsp)              # 32-byte Spill
    vmovdqu    %ymm0, 26704(%rsp)              # 32-byte Spill
    vmovdqu    %ymm0, 26736(%rsp)              # 32-byte Spill
    vmovdqu    %ymm0, 26768(%rsp)              # 32-byte Spill
    vmovdqu    %ymm0, 26800(%rsp)              # 32-byte Spill
    vmovdqu    %ymm0, 26832(%rsp)              # 32-byte Spill
    vmovdqu    %ymm0, 26864(%rsp)              # 32-byte Spill
    vmovdqu    %ymm0, 26896(%rsp)              # 32-byte Spill
    vmovdqu    %ymm0, 26928(%rsp)              # 32-byte Spill
    vmovdqu    %ymm0, 19296(%rsp)              # 32-byte Spill
    vmovdqu    %ymm0, 26960(%rsp)              # 32-byte Spill
    vmovdqu    %ymm0, 26992(%rsp)              # 32-byte Spill
    vmovdqu    %ymm0, 27024(%rsp)              # 32-byte Spill
    vmovdqu    %ymm0, 27056(%rsp)              # 32-byte Spill
    vmovdqu    %ymm0, 27088(%rsp)              # 32-byte Spill
    vmovdqu    %ymm0, 27120(%rsp)              # 32-byte Spill
    vmovdqu    %ymm0, 27152(%rsp)              # 32-byte Spill
    vmovdqu    %ymm0, 27184(%rsp)              # 32-byte Spill
    vmovdqu    %ymm0, 20656(%rsp)              # 32-byte Spill
    vmovdqu    %ymm0, 27216(%rsp)              # 32-byte Spill
    vmovdqu    %ymm0, 27248(%rsp)              # 32-byte Spill
    vmovdqu    %ymm0, 27280(%rsp)              # 32-byte Spill
    vmovdqu    %ymm0, 27312(%rsp)              # 32-byte Spill
    vmovdqu    %ymm0, 27344(%rsp)              # 32-byte Spill
    vmovdqu    %ymm0, 27376(%rsp)              # 32-byte Spill
    vmovdqu    %ymm0, 27408(%rsp)              # 32-byte Spill
    vmovdqu    %ymm0, 27440(%rsp)              # 32-byte Spill
    vmovdqu    %ymm0, 27472(%rsp)              # 32-byte Spill
    vmovdqu    %ymm0, 27504(%rsp)              # 32-byte Spill
    vmovdqu    %ymm0, 27536(%rsp)              # 32-byte Spill
    vmovdqu    %ymm0, 27568(%rsp)              # 32-byte Spill
    vmovdqu    %ymm0, 27600(%rsp)              # 32-byte Spill
    vmovdqu    %ymm0, 19808(%rsp)              # 32-byte Spill
    vmovdqu    %ymm0, 27632(%rsp)              # 32-byte Spill
    vmovdqu    %ymm0, 27664(%rsp)              # 32-byte Spill
    vmovdqu    %ymm0, 27696(%rsp)              # 32-byte Spill
    vmovdqu    %ymm0, 27728(%rsp)              # 32-byte Spill
    vmovdqu    %ymm0, 27760(%rsp)              # 32-byte Spill
    vmovdqu    %ymm0, 27792(%rsp)              # 32-byte Spill
    vmovdqu    %ymm0, 27824(%rsp)              # 32-byte Spill
    vmovdqu    %ymm0, 27856(%rsp)              # 32-byte Spill
    vmovdqu    %ymm0, 27888(%rsp)              # 32-byte Spill
    vmovdqu    %ymm0, 19840(%rsp)              # 32-byte Spill
    vmovdqu    %ymm0, 20720(%rsp)              # 32-byte Spill
    vmovdqu    %ymm0, 27920(%rsp)              # 32-byte Spill
    vmovdqu    %ymm0, 27952(%rsp)              # 32-byte Spill
    vmovdqu    %ymm0, 27984(%rsp)              # 32-byte Spill
    vmovdqu    %ymm0, 28016(%rsp)              # 32-byte Spill
    vmovdqu    %ymm0, 16992(%rsp)              # 32-byte Spill
    vmovdqu    %ymm0, 28048(%rsp)              # 32-byte Spill
    vmovdqu    %ymm0, 28080(%rsp)              # 32-byte Spill
    vmovdqu    %ymm0, 28112(%rsp)              # 32-byte Spill
    vmovdqu    %ymm0, 28144(%rsp)              # 32-byte Spill
    vmovdqu    %ymm0, 28176(%rsp)              # 32-byte Spill
    vmovdqu    %ymm0, 28208(%rsp)              # 32-byte Spill
    vmovdqu    %ymm0, 28240(%rsp)              # 32-byte Spill
    vmovdqu    %ymm0, 28272(%rsp)              # 32-byte Spill
    vmovdqu    %ymm0, 17808(%rsp)              # 32-byte Spill
    vmovdqu    %ymm0, 28304(%rsp)              # 32-byte Spill
    vmovdqu    %ymm0, 28336(%rsp)              # 32-byte Spill
    vmovdqu    %ymm0, 28368(%rsp)              # 32-byte Spill
    vmovdqu    %ymm0, 28400(%rsp)              # 32-byte Spill
    vmovdqu    %ymm0, 28432(%rsp)              # 32-byte Spill
    vmovdqu    %ymm0, 28464(%rsp)              # 32-byte Spill
    vmovdqu    %ymm0, 28496(%rsp)              # 32-byte Spill
    vmovdqu    %ymm0, 28528(%rsp)              # 32-byte Spill
    vmovdqu    %ymm0, 28560(%rsp)              # 32-byte Spill
    vmovdqu    %ymm0, 28592(%rsp)              # 32-byte Spill
    vmovdqu    %ymm0, 28624(%rsp)              # 32-byte Spill
    vmovdqu    %ymm0, 28656(%rsp)              # 32-byte Spill
    vmovdqu    %ymm0, 28688(%rsp)              # 32-byte Spill
    vmovdqu    %ymm0, 28720(%rsp)              # 32-byte Spill
    vmovdqu    %ymm0, 28752(%rsp)              # 32-byte Spill
    vmovdqu    %ymm0, 28784(%rsp)              # 32-byte Spill
    vmovdqu    %ymm0, 28816(%rsp)              # 32-byte Spill
    vmovdqu    %ymm0, 28848(%rsp)              # 32-byte Spill
    vmovdqu    %ymm0, 28880(%rsp)              # 32-byte Spill
    vmovdqu    %ymm0, 28912(%rsp)              # 32-byte Spill
    vmovdqu    %ymm0, 28944(%rsp)              # 32-byte Spill
    vmovdqu    %ymm0, 28976(%rsp)              # 32-byte Spill
    vmovdqu    %ymm0, 20464(%rsp)              # 32-byte Spill
    vmovdqu    %ymm0, 29008(%rsp)              # 32-byte Spill
    vmovdqu    %ymm0, 29040(%rsp)              # 32-byte Spill
    vmovdqu    %ymm0, 29072(%rsp)              # 32-byte Spill
    vmovdqu    %ymm0, 29104(%rsp)              # 32-byte Spill
    vmovdqu    %ymm0, 29136(%rsp)              # 32-byte Spill
    vmovdqu    %ymm0, 29168(%rsp)              # 32-byte Spill
    vmovdqu    %ymm0, 29200(%rsp)              # 32-byte Spill
    vmovdqu    %ymm0, 29232(%rsp)              # 32-byte Spill
    vmovdqu    %ymm0, 29264(%rsp)              # 32-byte Spill
    vmovdqu    %ymm0, 29296(%rsp)              # 32-byte Spill
    vmovdqu    %ymm0, 29328(%rsp)              # 32-byte Spill
    vmovdqu    %ymm0, 29360(%rsp)              # 32-byte Spill
    vmovdqu    %ymm0, 19360(%rsp)              # 32-byte Spill
    vmovdqu    %ymm0, 29392(%rsp)              # 32-byte Spill
    vmovdqu    %ymm0, 29424(%rsp)              # 32-byte Spill
    vmovdqu    %ymm0, 17024(%rsp)              # 32-byte Spill
    vmovdqu    %ymm0, 19024(%rsp)              # 32-byte Spill
    vmovdqu    %ymm0, 29456(%rsp)              # 32-byte Spill
    vmovdqu    %ymm0, 29488(%rsp)              # 32-byte Spill
    vmovdqu    %ymm0, 29520(%rsp)              # 32-byte Spill
    vmovdqu    %ymm0, 29552(%rsp)              # 32-byte Spill
    vmovdqu    %ymm0, 29584(%rsp)              # 32-byte Spill
    vmovdqu    %ymm0, 29616(%rsp)              # 32-byte Spill
    vmovdqu    %ymm0, 21328(%rsp)              # 32-byte Spill
    vmovdqu    %ymm0, 18864(%rsp)              # 32-byte Spill
    vmovdqu    %ymm0, 20688(%rsp)              # 32-byte Spill
    vmovdqu    %ymm0, 29648(%rsp)              # 32-byte Spill
    vmovdqu    %ymm0, 29680(%rsp)              # 32-byte Spill
    vmovdqu    %ymm0, 20496(%rsp)              # 32-byte Spill
    vmovdqu    %ymm0, 19584(%rsp)              # 32-byte Spill
    vmovdqu    %ymm0, 29712(%rsp)              # 32-byte Spill
    vmovdqu    %ymm0, 29744(%rsp)              # 32-byte Spill
    vmovdqu    %ymm0, 29776(%rsp)              # 32-byte Spill
    vmovdqu    %ymm0, 29808(%rsp)              # 32-byte Spill
    vmovdqu    %ymm0, 30352(%rsp)              # 32-byte Spill
    vmovdqu    %ymm0, 30384(%rsp)              # 32-byte Spill
    vmovdqu    %ymm0, 30416(%rsp)              # 32-byte Spill
    vmovdqu    %ymm0, 30448(%rsp)              # 32-byte Spill
    vmovdqu    %ymm0, 30320(%rsp)              # 32-byte Spill
    vmovdqu    %ymm0, 29840(%rsp)              # 32-byte Spill
    vmovdqu    %ymm0, 30480(%rsp)              # 32-byte Spill
    vmovdqu    %ymm0, 8480(%rsp)               # 32-byte Spill
    vmovdqu    %ymm0, 5760(%rsp)               # 32-byte Spill
    vmovdqu    %ymm0, 5792(%rsp)               # 32-byte Spill
    vmovdqu    %ymm0, 2048(%rsp)               # 32-byte Spill
    vmovdqu    %ymm0, 2080(%rsp)               # 32-byte Spill
    vmovdqu    %ymm0, 5824(%rsp)               # 32-byte Spill
    vmovdqu    %ymm0, 5856(%rsp)               # 32-byte Spill
    vmovdqu    %ymm0, 5888(%rsp)               # 32-byte Spill
    vmovdqu    %ymm0, 2112(%rsp)               # 32-byte Spill
    vmovdqu    %ymm0, 8512(%rsp)               # 32-byte Spill
    vmovdqu    %ymm0, 5920(%rsp)               # 32-byte Spill
    vmovdqu    %ymm0, 2144(%rsp)               # 32-byte Spill
    vmovdqu    %ymm0, 2176(%rsp)               # 32-byte Spill
    vmovdqu    %ymm0, 5952(%rsp)               # 32-byte Spill
    vmovdqu    %ymm0, 8544(%rsp)               # 32-byte Spill
    vmovdqu    %ymm0, 5984(%rsp)               # 32-byte Spill
    vmovdqu    %ymm0, 2208(%rsp)               # 32-byte Spill
    vmovdqu    %ymm0, 2240(%rsp)               # 32-byte Spill
    vmovdqu    %ymm0, 2272(%rsp)               # 32-byte Spill
    vmovdqu    %ymm0, 2304(%rsp)               # 32-byte Spill
    vmovdqu    %ymm0, 2336(%rsp)               # 32-byte Spill
    vmovdqu    %ymm0, 2368(%rsp)               # 32-byte Spill
    vmovdqu    %ymm0, 6016(%rsp)               # 32-byte Spill
    vmovdqu    %ymm0, 6048(%rsp)               # 32-byte Spill
    vmovdqu    %ymm0, 2400(%rsp)               # 32-byte Spill
    vmovdqu    %ymm0, 2432(%rsp)               # 32-byte Spill
    vmovdqu    %ymm0, 2464(%rsp)               # 32-byte Spill
    vmovdqu    %ymm0, 2496(%rsp)               # 32-byte Spill
    vmovdqu    %ymm0, 2528(%rsp)               # 32-byte Spill
    vmovdqu    %ymm0, 2560(%rsp)               # 32-byte Spill
    vmovdqu    %ymm0, 6080(%rsp)               # 32-byte Spill
    vmovdqu    %ymm0, 6112(%rsp)               # 32-byte Spill
    vmovdqu    %ymm0, 2592(%rsp)               # 32-byte Spill
    vmovdqu    %ymm0, 2624(%rsp)               # 32-byte Spill
    vmovdqu    %ymm0, 2656(%rsp)               # 32-byte Spill
    vmovdqu    %ymm0, 2688(%rsp)               # 32-byte Spill
    vmovdqu    %ymm0, 2720(%rsp)               # 32-byte Spill
    vmovdqu    %ymm0, 6144(%rsp)               # 32-byte Spill
    vmovdqu    %ymm0, 8576(%rsp)               # 32-byte Spill
    vmovdqu    %ymm0, 6176(%rsp)               # 32-byte Spill
    vmovdqu    %ymm0, 2752(%rsp)               # 32-byte Spill
    vmovdqu    %ymm0, 2784(%rsp)               # 32-byte Spill
    vmovdqu    %ymm0, 2816(%rsp)               # 32-byte Spill
    vmovdqu    %ymm0, 2848(%rsp)               # 32-byte Spill
    vmovdqu    %ymm0, 2880(%rsp)               # 32-byte Spill
    vmovdqu    %ymm0, 2912(%rsp)               # 32-byte Spill
    vmovdqu    %ymm0, 6208(%rsp)               # 32-byte Spill
    vmovdqu    %ymm0, 6240(%rsp)               # 32-byte Spill
    vmovdqu    %ymm0, 2944(%rsp)               # 32-byte Spill
    vmovdqu    %ymm0, 2976(%rsp)               # 32-byte Spill
    vmovdqu    %ymm0, 3008(%rsp)               # 32-byte Spill
    vmovdqu    %ymm0, 3040(%rsp)               # 32-byte Spill
    vmovdqu    %ymm0, 6272(%rsp)               # 32-byte Spill
    vmovdqu    %ymm0, 3072(%rsp)               # 32-byte Spill
    vmovdqu    %ymm0, 6304(%rsp)               # 32-byte Spill
    vmovdqu    %ymm0, 3104(%rsp)               # 32-byte Spill
    vmovdqu    %ymm0, 3136(%rsp)               # 32-byte Spill
    vmovdqu    %ymm0, 3168(%rsp)               # 32-byte Spill
    vmovdqu    %ymm0, 3200(%rsp)               # 32-byte Spill
    vmovdqu    %ymm0, 3232(%rsp)               # 32-byte Spill
    vmovdqu    %ymm0, 6336(%rsp)               # 32-byte Spill
    vmovdqu    %ymm0, 3264(%rsp)               # 32-byte Spill
    vmovdqu    %ymm0, 6368(%rsp)               # 32-byte Spill
    vmovdqu    %ymm0, 3296(%rsp)               # 32-byte Spill
    vmovdqu    %ymm0, 3328(%rsp)               # 32-byte Spill
    vmovdqu    %ymm0, 3360(%rsp)               # 32-byte Spill
    vmovdqu    %ymm0, 3392(%rsp)               # 32-byte Spill
    vmovdqu    %ymm0, 8608(%rsp)               # 32-byte Spill
    vmovdqu    %ymm0, 8640(%rsp)               # 32-byte Spill
    vmovdqu    %ymm0, 3424(%rsp)               # 32-byte Spill
    vmovdqu    %ymm0, 6400(%rsp)               # 32-byte Spill
    vmovdqu    %ymm0, 3456(%rsp)               # 32-byte Spill
    vmovdqu    %ymm0, 3488(%rsp)               # 32-byte Spill
    vmovdqu    %ymm0, 3520(%rsp)               # 32-byte Spill
    vmovdqu    %ymm0, 3552(%rsp)               # 32-byte Spill
    vmovdqu    %ymm0, 6432(%rsp)               # 32-byte Spill
    vmovdqu    %ymm0, 6464(%rsp)               # 32-byte Spill
    vmovdqu    %ymm0, 6496(%rsp)               # 32-byte Spill
    vmovdqu    %ymm0, 6528(%rsp)               # 32-byte Spill
    vmovdqu    %ymm0, 6560(%rsp)               # 32-byte Spill
    vmovdqu    %ymm0, 3584(%rsp)               # 32-byte Spill
    vmovdqu    %ymm0, 6592(%rsp)               # 32-byte Spill
    vmovdqu    %ymm0, 3616(%rsp)               # 32-byte Spill
    vmovdqu    %ymm0, 3648(%rsp)               # 32-byte Spill
    vmovdqu    %ymm0, 6624(%rsp)               # 32-byte Spill
    vmovdqu    %ymm0, 3680(%rsp)               # 32-byte Spill
    vmovdqu    %ymm0, 3712(%rsp)               # 32-byte Spill
    vmovdqu    %ymm0, 6656(%rsp)               # 32-byte Spill
    vmovdqu    %ymm0, 6688(%rsp)               # 32-byte Spill
    vmovdqu    %ymm0, 3744(%rsp)               # 32-byte Spill
    vmovdqu    %ymm0, 6720(%rsp)               # 32-byte Spill
    vmovdqu    %ymm0, 3776(%rsp)               # 32-byte Spill
    vmovdqu    %ymm0, 3808(%rsp)               # 32-byte Spill
    vmovdqu    %ymm0, 3840(%rsp)               # 32-byte Spill
    vmovdqu    %ymm0, 3872(%rsp)               # 32-byte Spill
    vmovdqu    %ymm0, 6752(%rsp)               # 32-byte Spill
    vmovdqu    %ymm0, 3904(%rsp)               # 32-byte Spill
    vmovdqu    %ymm0, 8672(%rsp)               # 32-byte Spill
    vmovdqu    %ymm0, 3936(%rsp)               # 32-byte Spill
    vmovdqu    %ymm0, 3968(%rsp)               # 32-byte Spill
    vmovdqu    %ymm0, 6784(%rsp)               # 32-byte Spill
    vmovdqu    %ymm0, 4000(%rsp)               # 32-byte Spill
    vmovdqu    %ymm0, 6816(%rsp)               # 32-byte Spill
    vmovdqu    %ymm0, 4032(%rsp)               # 32-byte Spill
    vmovdqu    %ymm0, 6848(%rsp)               # 32-byte Spill
    vmovdqu    %ymm0, 4064(%rsp)               # 32-byte Spill
    vmovdqu    %ymm0, 4096(%rsp)               # 32-byte Spill
    vmovdqu    %ymm0, 4128(%rsp)               # 32-byte Spill
    vmovdqu    %ymm0, 4160(%rsp)               # 32-byte Spill
    vmovdqu    %ymm0, 6880(%rsp)               # 32-byte Spill
    vmovdqu    %ymm0, 4192(%rsp)               # 32-byte Spill
    vmovdqu    %ymm0, 6912(%rsp)               # 32-byte Spill
    vmovdqu    %ymm0, 4224(%rsp)               # 32-byte Spill
    vmovdqu    %ymm0, 4256(%rsp)               # 32-byte Spill
    vmovdqu    %ymm0, 4288(%rsp)               # 32-byte Spill
    vmovdqu    %ymm0, 4320(%rsp)               # 32-byte Spill
    vmovdqu    %ymm0, 4352(%rsp)               # 32-byte Spill
    vmovdqu    %ymm0, 4384(%rsp)               # 32-byte Spill
    vmovdqu    %ymm0, 6944(%rsp)               # 32-byte Spill
    vmovdqu    %ymm0, 6976(%rsp)               # 32-byte Spill
    vmovdqu    %ymm0, 4416(%rsp)               # 32-byte Spill
    vmovdqu    %ymm0, 4448(%rsp)               # 32-byte Spill
    vmovdqu    %ymm0, 4480(%rsp)               # 32-byte Spill
    vmovdqu    %ymm0, 4512(%rsp)               # 32-byte Spill
    vmovdqu    %ymm0, 4544(%rsp)               # 32-byte Spill
    vmovdqu    %ymm0, 4576(%rsp)               # 32-byte Spill
    vmovdqu    %ymm0, 7008(%rsp)               # 32-byte Spill
    vmovdqu    %ymm0, 7040(%rsp)               # 32-byte Spill
    vmovdqu    %ymm0, 8704(%rsp)               # 32-byte Spill
    vmovdqu    %ymm0, 7072(%rsp)               # 32-byte Spill
    vmovdqu    %ymm0, 4608(%rsp)               # 32-byte Spill
    vmovdqu    %ymm0, 4640(%rsp)               # 32-byte Spill
    vmovdqu    %ymm0, 4672(%rsp)               # 32-byte Spill
    vmovdqu    %ymm0, 4704(%rsp)               # 32-byte Spill
    vmovdqu    %ymm0, 4736(%rsp)               # 32-byte Spill
    vmovdqu    %ymm0, 7104(%rsp)               # 32-byte Spill
    vmovdqu    %ymm0, 7136(%rsp)               # 32-byte Spill
    vmovdqu    %ymm0, 4768(%rsp)               # 32-byte Spill
    vmovdqu    %ymm0, 8736(%rsp)               # 32-byte Spill
    vmovdqu    %ymm0, 7168(%rsp)               # 32-byte Spill
    vmovdqu    %ymm0, 7200(%rsp)               # 32-byte Spill
    vmovdqu    %ymm0, 7232(%rsp)               # 32-byte Spill
    vmovdqu    %ymm0, 7264(%rsp)               # 32-byte Spill
    vmovdqu    %ymm0, 7296(%rsp)               # 32-byte Spill
    vmovdqu    %ymm0, 4800(%rsp)               # 32-byte Spill
    vmovdqu    %ymm0, 7328(%rsp)               # 32-byte Spill
    vmovdqu    %ymm0, 7360(%rsp)               # 32-byte Spill
    vmovdqu    %ymm0, 7392(%rsp)               # 32-byte Spill
    vmovdqu    %ymm0, 4832(%rsp)               # 32-byte Spill
    vmovdqu    %ymm0, 7424(%rsp)               # 32-byte Spill
    vmovdqu    %ymm0, 7456(%rsp)               # 32-byte Spill
    vmovdqu    %ymm0, 4864(%rsp)               # 32-byte Spill
    vmovdqu    %ymm0, 7488(%rsp)               # 32-byte Spill
    vmovdqu    %ymm0, 7520(%rsp)               # 32-byte Spill
    vmovdqu    %ymm0, 7552(%rsp)               # 32-byte Spill
    vmovdqu    %ymm0, 7584(%rsp)               # 32-byte Spill
    vmovdqu    %ymm0, 7616(%rsp)               # 32-byte Spill
    vmovdqu    %ymm0, 7648(%rsp)               # 32-byte Spill
    vmovdqu    %ymm0, 7680(%rsp)               # 32-byte Spill
    vmovdqu    %ymm0, 7712(%rsp)               # 32-byte Spill
    vmovdqu    %ymm0, 7744(%rsp)               # 32-byte Spill
    vmovdqu    %ymm0, 4896(%rsp)               # 32-byte Spill
    vmovdqu    %ymm0, 4928(%rsp)               # 32-byte Spill
    vmovdqu    %ymm0, 4960(%rsp)               # 32-byte Spill
    vmovdqu    %ymm0, 4992(%rsp)               # 32-byte Spill
    vmovdqu    %ymm0, 5024(%rsp)               # 32-byte Spill
    vmovdqu    %ymm0, 7776(%rsp)               # 32-byte Spill
    vmovdqu    %ymm0, 7808(%rsp)               # 32-byte Spill
    vmovdqu    %ymm0, 5056(%rsp)               # 32-byte Spill
    vmovdqu    %ymm0, 5088(%rsp)               # 32-byte Spill
    vmovdqu    %ymm0, 5120(%rsp)               # 32-byte Spill
    vmovdqu    %ymm0, 5152(%rsp)               # 32-byte Spill
    vmovdqu    %ymm0, 7840(%rsp)               # 32-byte Spill
    vmovdqu    %ymm0, 5184(%rsp)               # 32-byte Spill
    vmovdqu    %ymm0, 7872(%rsp)               # 32-byte Spill
    vmovdqu    %ymm0, 7904(%rsp)               # 32-byte Spill
    vmovdqu    %ymm0, 7936(%rsp)               # 32-byte Spill
    vmovdqu    %ymm0, 5216(%rsp)               # 32-byte Spill
    vmovdqu    %ymm0, 5248(%rsp)               # 32-byte Spill
    vmovdqu    %ymm0, 5280(%rsp)               # 32-byte Spill
    vmovdqu    %ymm0, 7968(%rsp)               # 32-byte Spill
    vmovdqu    %ymm0, 5312(%rsp)               # 32-byte Spill
    vmovdqu    %ymm0, 8000(%rsp)               # 32-byte Spill
    vmovdqu    %ymm0, 5344(%rsp)               # 32-byte Spill
    vmovdqu    %ymm0, 5376(%rsp)               # 32-byte Spill
    vmovdqu    %ymm0, 8032(%rsp)               # 32-byte Spill
    vmovdqu    %ymm0, 5408(%rsp)               # 32-byte Spill
    vmovdqu    %ymm0, 8064(%rsp)               # 32-byte Spill
    vmovdqu    %ymm0, 8096(%rsp)               # 32-byte Spill
    vmovdqu    %ymm0, 5440(%rsp)               # 32-byte Spill
    vmovdqu    %ymm0, 5472(%rsp)               # 32-byte Spill
    vmovdqu    %ymm0, 5504(%rsp)               # 32-byte Spill
    vmovdqu    %ymm0, 5536(%rsp)               # 32-byte Spill
    vmovdqu    %ymm0, 5568(%rsp)               # 32-byte Spill
    vmovdqu    %ymm0, 5600(%rsp)               # 32-byte Spill
    vmovdqu    %ymm0, 5632(%rsp)               # 32-byte Spill
    vmovdqu    %ymm0, 8128(%rsp)               # 32-byte Spill
    vmovdqu    %ymm0, 8160(%rsp)               # 32-byte Spill
    vmovdqu    %ymm0, 352(%rsp)                # 32-byte Spill
    vmovdqu    %ymm0, 384(%rsp)                # 32-byte Spill
    vmovdqu    %ymm0, 416(%rsp)                # 32-byte Spill
    vmovdqu    %ymm0, 448(%rsp)                # 32-byte Spill
    vmovdqu    %ymm0, 480(%rsp)                # 32-byte Spill
    vmovdqu    %ymm0, 512(%rsp)                # 32-byte Spill
    vmovdqu    %ymm0, 544(%rsp)                # 32-byte Spill
    vmovdqu    %ymm0, 576(%rsp)                # 32-byte Spill
    vmovdqu    %ymm0, 608(%rsp)                # 32-byte Spill
    vmovdqu    %ymm0, 640(%rsp)                # 32-byte Spill
    vmovdqu    %ymm0, 672(%rsp)                # 32-byte Spill
    vmovdqu    %ymm0, 704(%rsp)                # 32-byte Spill
    vmovdqu    %ymm0, 736(%rsp)                # 32-byte Spill
    vmovdqu    %ymm0, 768(%rsp)                # 32-byte Spill
    vmovdqu    %ymm0, 800(%rsp)                # 32-byte Spill
    vmovdqu    %ymm0, 832(%rsp)                # 32-byte Spill
    vmovdqu    %ymm0, 864(%rsp)                # 32-byte Spill
    vmovdqu    %ymm0, 896(%rsp)                # 32-byte Spill
    vmovdqu    %ymm0, 928(%rsp)                # 32-byte Spill
    vmovdqu    %ymm0, 8192(%rsp)               # 32-byte Spill
    vmovdqu    %ymm0, 960(%rsp)                # 32-byte Spill
    vmovdqu    %ymm0, 992(%rsp)                # 32-byte Spill
    vmovdqu    %ymm0, 1024(%rsp)               # 32-byte Spill
    vmovdqu    %ymm0, 1056(%rsp)               # 32-byte Spill
    vmovdqu    %ymm0, 1088(%rsp)               # 32-byte Spill
    vmovdqu    %ymm0, 1120(%rsp)               # 32-byte Spill
    vmovdqu    %ymm0, 1152(%rsp)               # 32-byte Spill
    vmovdqu    %ymm0, 1184(%rsp)               # 32-byte Spill
    vmovdqu    %ymm0, 1216(%rsp)               # 32-byte Spill
    vmovdqu    %ymm0, 1248(%rsp)               # 32-byte Spill
    vmovdqu    %ymm0, 1280(%rsp)               # 32-byte Spill
    vmovdqu    %ymm0, 1312(%rsp)               # 32-byte Spill
    vmovdqu    %ymm0, 8224(%rsp)               # 32-byte Spill
    vmovdqu    %ymm0, 1344(%rsp)               # 32-byte Spill
    vmovdqu    %ymm0, 1376(%rsp)               # 32-byte Spill
    vmovdqu    %ymm0, 1408(%rsp)               # 32-byte Spill
    vmovdqu    %ymm0, 1440(%rsp)               # 32-byte Spill
    vmovdqu    %ymm0, 1472(%rsp)               # 32-byte Spill
    vmovdqu    %ymm0, 1504(%rsp)               # 32-byte Spill
    vmovdqu    %ymm0, 1536(%rsp)               # 32-byte Spill
    vmovdqu    %ymm0, 1568(%rsp)               # 32-byte Spill
    vmovdqu    %ymm0, 1600(%rsp)               # 32-byte Spill
    vmovdqu    %ymm0, 1632(%rsp)               # 32-byte Spill
    vmovdqu    %ymm0, 1664(%rsp)               # 32-byte Spill
    vmovdqu    %ymm0, 1696(%rsp)               # 32-byte Spill
    vmovdqu    %ymm0, 1728(%rsp)               # 32-byte Spill
    vmovdqu    %ymm0, 1760(%rsp)               # 32-byte Spill
    vmovdqu    %ymm0, 8256(%rsp)               # 32-byte Spill
    vmovdqu    %ymm0, 8288(%rsp)               # 32-byte Spill
    vmovdqu    %ymm0, 1792(%rsp)               # 32-byte Spill
    vmovdqu    %ymm0, 1824(%rsp)               # 32-byte Spill
    vmovdqu    %ymm0, 8768(%rsp)               # 32-byte Spill
    vmovdqu    %ymm0, 8320(%rsp)               # 32-byte Spill
    vmovdqu    %ymm0, 8800(%rsp)               # 32-byte Spill
    vmovdqu    %ymm0, 1856(%rsp)               # 32-byte Spill
    vmovdqu    %ymm0, 1888(%rsp)               # 32-byte Spill
    vmovdqu    %ymm0, 1920(%rsp)               # 32-byte Spill
.LBB0_8:                                # %._crit_edge
                                        #   in Loop: Header=BB0_4 Depth=2
    .loc    1 37 26 is_stmt 1               # mm.py:37:26
    vpackssdw    30640(%rsp), %ymm15, %ymm0 # 32-byte Folded Reload
    vmovdqu    30672(%rsp), %ymm1              # 32-byte Reload
    vpackssdw    30608(%rsp), %ymm1, %ymm1 # 32-byte Folded Reload
    vpermq    $216, %ymm0, %ymm0              # ymm0 = ymm0[0,2,1,3]
    movl    20456(%rsp), %r8d               # 4-byte Reload
    .loc    1 60 39                         # mm.py:60:39
    vmovd    %r8d, %xmm2
    vpinsrb    $1, %r8d, %xmm2, %xmm2
    vpinsrb    $2, %r8d, %xmm2, %xmm2
    vpinsrb    $3, %r8d, %xmm2, %xmm2
    vpinsrb    $4, %r8d, %xmm2, %xmm2
    vpinsrb    $5, %r8d, %xmm2, %xmm2
    vpinsrb    $6, %r8d, %xmm2, %xmm2
    vpinsrb    $7, %r8d, %xmm2, %xmm2
    vpinsrb    $8, %r8d, %xmm2, %xmm2
    vpinsrb    $9, %r8d, %xmm2, %xmm2
    vpinsrb    $10, %r8d, %xmm2, %xmm2
    vpinsrb    $11, %r8d, %xmm2, %xmm2
    vpinsrb    $12, %r8d, %xmm2, %xmm2
    vpinsrb    $13, %r8d, %xmm2, %xmm2
    vpinsrb    $14, %r8d, %xmm2, %xmm2
    vpinsrb    $15, %r8d, %xmm2, %xmm2
    .loc    1 37 26                         # mm.py:37:26
    vpermq    $216, %ymm1, %ymm1              # ymm1 = ymm1[0,2,1,3]
    .loc    1 60 39                         # mm.py:60:39
    vmovd    %r8d, %xmm3
    vpinsrb    $1, %r8d, %xmm3, %xmm3
    vpinsrb    $2, %r8d, %xmm3, %xmm3
    vpinsrb    $3, %r8d, %xmm3, %xmm3
    vpinsrb    $4, %r8d, %xmm3, %xmm3
    vpinsrb    $5, %r8d, %xmm3, %xmm3
    vpinsrb    $6, %r8d, %xmm3, %xmm3
    vpinsrb    $7, %r8d, %xmm3, %xmm3
    vpinsrb    $8, %r8d, %xmm3, %xmm3
    vpinsrb    $9, %r8d, %xmm3, %xmm3
    vpinsrb    $10, %r8d, %xmm3, %xmm3
    vpinsrb    $11, %r8d, %xmm3, %xmm3
    vpinsrb    $12, %r8d, %xmm3, %xmm3
    vpinsrb    $13, %r8d, %xmm3, %xmm3
    vpinsrb    $14, %r8d, %xmm3, %xmm3
    .loc    1 37 26                         # mm.py:37:26
    vpacksswb    %ymm1, %ymm0, %ymm0
    .loc    1 60 39                         # mm.py:60:39
    vpinsrb    $15, %r8d, %xmm3, %xmm1
    vinserti128    $1, %xmm1, %ymm2, %ymm1
    .loc    1 37 26                         # mm.py:37:26
    vpermq    $216, %ymm0, %ymm0              # ymm0 = ymm0[0,2,1,3]
    .loc    1 60 39                         # mm.py:60:39
    vpand    %ymm0, %ymm1, %ymm1
    .loc    1 59 16                         # mm.py:59:16
    vextracti128    $1, %ymm1, %xmm2
    vpmovzxbd    %xmm2, %ymm3            # ymm3 = xmm2[0],zero,zero,zero,xmm2[1],zero,zero,zero,xmm2[2],zero,zero,zero,xmm2[3],zero,zero,zero,xmm2[4],zero,zero,zero,xmm2[5],zero,zero,zero,xmm2[6],zero,zero,zero,xmm2[7],zero,zero,zero
    vpslld    $31, %ymm3, %ymm3
    movq    22544(%rsp), %r11               # 8-byte Reload
    vmovups    1984(%rsp), %ymm5               # 32-byte Reload
    movq    22552(%rsp), %rax               # 8-byte Reload
    vmaskmovps    %ymm5, %ymm3, 64(%r11,%rax,4)
    vpmovzxbd    %xmm1, %ymm3            # ymm3 = xmm1[0],zero,zero,zero,xmm1[1],zero,zero,zero,xmm1[2],zero,zero,zero,xmm1[3],zero,zero,zero,xmm1[4],zero,zero,zero,xmm1[5],zero,zero,zero,xmm1[6],zero,zero,zero,xmm1[7],zero,zero,zero
    vpslld    $31, %ymm3, %ymm3
    vmovups    22896(%rsp), %ymm5              # 32-byte Reload
    vmaskmovps    %ymm5, %ymm3, (%r11,%rax,4)
    vpunpckhbw    %xmm2, %xmm2, %xmm2     # xmm2 = xmm2[8,8,9,9,10,10,11,11,12,12,13,13,14,14,15,15]
    vpmovzxwd    %xmm2, %ymm2            # ymm2 = xmm2[0],zero,xmm2[1],zero,xmm2[2],zero,xmm2[3],zero,xmm2[4],zero,xmm2[5],zero,xmm2[6],zero,xmm2[7],zero
    vpslld    $31, %ymm2, %ymm2
    vmovups    2016(%rsp), %ymm3               # 32-byte Reload
    vmaskmovps    %ymm3, %ymm2, 96(%r11,%rax,4)
    vpunpckhbw    %xmm1, %xmm1, %xmm1     # xmm1 = xmm1[8,8,9,9,10,10,11,11,12,12,13,13,14,14,15,15]
    vpmovzxwd    %xmm1, %ymm1            # ymm1 = xmm1[0],zero,xmm1[1],zero,xmm1[2],zero,xmm1[3],zero,xmm1[4],zero,xmm1[5],zero,xmm1[6],zero,xmm1[7],zero
    vpslld    $31, %ymm1, %ymm1
    vmovups    20592(%rsp), %ymm2              # 32-byte Reload
    vmaskmovps    %ymm2, %ymm1, 32(%r11,%rax,4)
    .loc    1 37 26                         # mm.py:37:26
    vpackssdw    %ymm9, %ymm4, %ymm1
    vpackssdw    %ymm8, %ymm7, %ymm2
    vpermq    $216, %ymm1, %ymm1              # ymm1 = ymm1[0,2,1,3]
    .loc    1 60 39                         # mm.py:60:39
    vmovd    %r8d, %xmm3
    vpinsrb    $1, %r8d, %xmm3, %xmm3
    vpinsrb    $2, %r8d, %xmm3, %xmm3
    vpinsrb    $3, %r8d, %xmm3, %xmm3
    vpinsrb    $4, %r8d, %xmm3, %xmm3
    vpinsrb    $5, %r8d, %xmm3, %xmm3
    vpinsrb    $6, %r8d, %xmm3, %xmm3
    vpinsrb    $7, %r8d, %xmm3, %xmm3
    vpinsrb    $8, %r8d, %xmm3, %xmm3
    vpinsrb    $9, %r8d, %xmm3, %xmm3
    vpinsrb    $10, %r8d, %xmm3, %xmm3
    vpinsrb    $11, %r8d, %xmm3, %xmm3
    vpinsrb    $12, %r8d, %xmm3, %xmm3
    vpinsrb    $13, %r8d, %xmm3, %xmm3
    vpinsrb    $14, %r8d, %xmm3, %xmm3
    vpinsrb    $15, %r8d, %xmm3, %xmm3
    .loc    1 37 26                         # mm.py:37:26
    vpermq    $216, %ymm2, %ymm2              # ymm2 = ymm2[0,2,1,3]
    .loc    1 60 39                         # mm.py:60:39
    vmovd    %r8d, %xmm4
    vpinsrb    $1, %r8d, %xmm4, %xmm4
    vpinsrb    $2, %r8d, %xmm4, %xmm4
    vpinsrb    $3, %r8d, %xmm4, %xmm4
    vpinsrb    $4, %r8d, %xmm4, %xmm4
    vpinsrb    $5, %r8d, %xmm4, %xmm4
    vpinsrb    $6, %r8d, %xmm4, %xmm4
    vpinsrb    $7, %r8d, %xmm4, %xmm4
    vpinsrb    $8, %r8d, %xmm4, %xmm4
    vpinsrb    $9, %r8d, %xmm4, %xmm4
    vpinsrb    $10, %r8d, %xmm4, %xmm4
    vpinsrb    $11, %r8d, %xmm4, %xmm4
    vpinsrb    $12, %r8d, %xmm4, %xmm4
    vpinsrb    $13, %r8d, %xmm4, %xmm4
    vpinsrb    $14, %r8d, %xmm4, %xmm4
    .loc    1 37 26                         # mm.py:37:26
    vpacksswb    %ymm2, %ymm1, %ymm1
    .loc    1 60 39                         # mm.py:60:39
    vpinsrb    $15, %r8d, %xmm4, %xmm2
    vinserti128    $1, %xmm2, %ymm3, %ymm2
    .loc    1 37 26                         # mm.py:37:26
    vpermq    $216, %ymm1, %ymm1              # ymm1 = ymm1[0,2,1,3]
    .loc    1 60 39                         # mm.py:60:39
    vpand    %ymm1, %ymm2, %ymm2
    .loc    1 59 16                         # mm.py:59:16
    vextracti128    $1, %ymm2, %xmm3
    vpmovzxbd    %xmm3, %ymm4            # ymm4 = xmm3[0],zero,zero,zero,xmm3[1],zero,zero,zero,xmm3[2],zero,zero,zero,xmm3[3],zero,zero,zero,xmm3[4],zero,zero,zero,xmm3[5],zero,zero,zero,xmm3[6],zero,zero,zero,xmm3[7],zero,zero,zero
    vpslld    $31, %ymm4, %ymm4
    vmovups    22928(%rsp), %ymm5              # 32-byte Reload
    vmaskmovps    %ymm5, %ymm4, 192(%r11,%rax,4)
    vpmovzxbd    %xmm2, %ymm4            # ymm4 = xmm2[0],zero,zero,zero,xmm2[1],zero,zero,zero,xmm2[2],zero,zero,zero,xmm2[3],zero,zero,zero,xmm2[4],zero,zero,zero,xmm2[5],zero,zero,zero,xmm2[6],zero,zero,zero,xmm2[7],zero,zero,zero
    vpslld    $31, %ymm4, %ymm4
    vmovups    22992(%rsp), %ymm5              # 32-byte Reload
    vmaskmovps    %ymm5, %ymm4, 128(%r11,%rax,4)
    vpunpckhbw    %xmm3, %xmm3, %xmm3     # xmm3 = xmm3[8,8,9,9,10,10,11,11,12,12,13,13,14,14,15,15]
    vpmovzxwd    %xmm3, %ymm3            # ymm3 = xmm3[0],zero,xmm3[1],zero,xmm3[2],zero,xmm3[3],zero,xmm3[4],zero,xmm3[5],zero,xmm3[6],zero,xmm3[7],zero
    vpslld    $31, %ymm3, %ymm3
    vmovups    22960(%rsp), %ymm4              # 32-byte Reload
    vmaskmovps    %ymm4, %ymm3, 224(%r11,%rax,4)
    vpunpckhbw    %xmm2, %xmm2, %xmm2     # xmm2 = xmm2[8,8,9,9,10,10,11,11,12,12,13,13,14,14,15,15]
    vpmovzxwd    %xmm2, %ymm2            # ymm2 = xmm2[0],zero,xmm2[1],zero,xmm2[2],zero,xmm2[3],zero,xmm2[4],zero,xmm2[5],zero,xmm2[6],zero,xmm2[7],zero
    vpslld    $31, %ymm2, %ymm2
    vmovups    23024(%rsp), %ymm3              # 32-byte Reload
    vmaskmovps    %ymm3, %ymm2, 160(%r11,%rax,4)
    movl    20452(%rsp), %r8d               # 4-byte Reload
    .loc    1 60 39                         # mm.py:60:39
    vmovd    %r8d, %xmm2
    vpinsrb    $1, %r8d, %xmm2, %xmm2
    vpinsrb    $2, %r8d, %xmm2, %xmm2
    vpinsrb    $3, %r8d, %xmm2, %xmm2
    vpinsrb    $4, %r8d, %xmm2, %xmm2
    vpinsrb    $5, %r8d, %xmm2, %xmm2
    vpinsrb    $6, %r8d, %xmm2, %xmm2
    vpinsrb    $7, %r8d, %xmm2, %xmm2
    vpinsrb    $8, %r8d, %xmm2, %xmm2
    vpinsrb    $9, %r8d, %xmm2, %xmm2
    vpinsrb    $10, %r8d, %xmm2, %xmm2
    vpinsrb    $11, %r8d, %xmm2, %xmm2
    vpinsrb    $12, %r8d, %xmm2, %xmm2
    vpinsrb    $13, %r8d, %xmm2, %xmm2
    vpinsrb    $14, %r8d, %xmm2, %xmm2
    vpinsrb    $15, %r8d, %xmm2, %xmm2
    vmovd    %r8d, %xmm3
    vpinsrb    $1, %r8d, %xmm3, %xmm3
    vpinsrb    $2, %r8d, %xmm3, %xmm3
    vpinsrb    $3, %r8d, %xmm3, %xmm3
    vpinsrb    $4, %r8d, %xmm3, %xmm3
    vpinsrb    $5, %r8d, %xmm3, %xmm3
    vpinsrb    $6, %r8d, %xmm3, %xmm3
    vpinsrb    $7, %r8d, %xmm3, %xmm3
    vpinsrb    $8, %r8d, %xmm3, %xmm3
    vpinsrb    $9, %r8d, %xmm3, %xmm3
    vpinsrb    $10, %r8d, %xmm3, %xmm3
    vpinsrb    $11, %r8d, %xmm3, %xmm3
    vpinsrb    $12, %r8d, %xmm3, %xmm3
    vpinsrb    $13, %r8d, %xmm3, %xmm3
    vpinsrb    $14, %r8d, %xmm3, %xmm3
    vpinsrb    $15, %r8d, %xmm3, %xmm3
    vinserti128    $1, %xmm3, %ymm2, %ymm2
    vpand    %ymm1, %ymm2, %ymm2
    .loc    1 59 16                         # mm.py:59:16
    vextracti128    $1, %ymm2, %xmm3
    vpunpckhbw    %xmm3, %xmm3, %xmm4     # xmm4 = xmm3[8,8,9,9,10,10,11,11,12,12,13,13,14,14,15,15]
    vpmovzxwd    %xmm4, %ymm4            # ymm4 = xmm4[0],zero,xmm4[1],zero,xmm4[2],zero,xmm4[3],zero,xmm4[4],zero,xmm4[5],zero,xmm4[6],zero,xmm4[7],zero
    vpslld    $31, %ymm4, %ymm4
    movq    22536(%rsp), %r11               # 8-byte Reload
    vmovups    23056(%rsp), %ymm5              # 32-byte Reload
    vmaskmovps    %ymm5, %ymm4, 224(%r11,%rax,4)
    vpmovzxbd    %xmm3, %ymm3            # ymm3 = xmm3[0],zero,zero,zero,xmm3[1],zero,zero,zero,xmm3[2],zero,zero,zero,xmm3[3],zero,zero,zero,xmm3[4],zero,zero,zero,xmm3[5],zero,zero,zero,xmm3[6],zero,zero,zero,xmm3[7],zero,zero,zero
    vpslld    $31, %ymm3, %ymm3
    vmovups    23088(%rsp), %ymm4              # 32-byte Reload
    vmaskmovps    %ymm4, %ymm3, 192(%r11,%rax,4)
    vpunpckhbw    %xmm2, %xmm2, %xmm3     # xmm3 = xmm2[8,8,9,9,10,10,11,11,12,12,13,13,14,14,15,15]
    vpmovzxwd    %xmm3, %ymm3            # ymm3 = xmm3[0],zero,xmm3[1],zero,xmm3[2],zero,xmm3[3],zero,xmm3[4],zero,xmm3[5],zero,xmm3[6],zero,xmm3[7],zero
    vpslld    $31, %ymm3, %ymm3
    vmovups    23120(%rsp), %ymm4              # 32-byte Reload
    vmaskmovps    %ymm4, %ymm3, 160(%r11,%rax,4)
    vpmovzxbd    %xmm2, %ymm2            # ymm2 = xmm2[0],zero,zero,zero,xmm2[1],zero,zero,zero,xmm2[2],zero,zero,zero,xmm2[3],zero,zero,zero,xmm2[4],zero,zero,zero,xmm2[5],zero,zero,zero,xmm2[6],zero,zero,zero,xmm2[7],zero,zero,zero
    vpslld    $31, %ymm2, %ymm2
    vmovups    21168(%rsp), %ymm3              # 32-byte Reload
    vmaskmovps    %ymm3, %ymm2, 128(%r11,%rax,4)
    .loc    1 60 39                         # mm.py:60:39
    vmovd    %r8d, %xmm2
    vpinsrb    $1, %r8d, %xmm2, %xmm2
    vpinsrb    $2, %r8d, %xmm2, %xmm2
    vpinsrb    $3, %r8d, %xmm2, %xmm2
    vpinsrb    $4, %r8d, %xmm2, %xmm2
    vpinsrb    $5, %r8d, %xmm2, %xmm2
    vpinsrb    $6, %r8d, %xmm2, %xmm2
    vpinsrb    $7, %r8d, %xmm2, %xmm2
    vpinsrb    $8, %r8d, %xmm2, %xmm2
    vpinsrb    $9, %r8d, %xmm2, %xmm2
    vpinsrb    $10, %r8d, %xmm2, %xmm2
    vpinsrb    $11, %r8d, %xmm2, %xmm2
    vpinsrb    $12, %r8d, %xmm2, %xmm2
    vpinsrb    $13, %r8d, %xmm2, %xmm2
    vpinsrb    $14, %r8d, %xmm2, %xmm2
    vpinsrb    $15, %r8d, %xmm2, %xmm2
    vmovd    %r8d, %xmm3
    vpinsrb    $1, %r8d, %xmm3, %xmm3
    vpinsrb    $2, %r8d, %xmm3, %xmm3
    vpinsrb    $3, %r8d, %xmm3, %xmm3
    vpinsrb    $4, %r8d, %xmm3, %xmm3
    vpinsrb    $5, %r8d, %xmm3, %xmm3
    vpinsrb    $6, %r8d, %xmm3, %xmm3
    vpinsrb    $7, %r8d, %xmm3, %xmm3
    vpinsrb    $8, %r8d, %xmm3, %xmm3
    vpinsrb    $9, %r8d, %xmm3, %xmm3
    vpinsrb    $10, %r8d, %xmm3, %xmm3
    vpinsrb    $11, %r8d, %xmm3, %xmm3
    vpinsrb    $12, %r8d, %xmm3, %xmm3
    vpinsrb    $13, %r8d, %xmm3, %xmm3
    vpinsrb    $14, %r8d, %xmm3, %xmm3
    vpinsrb    $15, %r8d, %xmm3, %xmm3
    vinserti128    $1, %xmm3, %ymm2, %ymm2
    vpand    %ymm0, %ymm2, %ymm2
    .loc    1 59 16                         # mm.py:59:16
    vextracti128    $1, %ymm2, %xmm3
    vpunpckhbw    %xmm3, %xmm3, %xmm4     # xmm4 = xmm3[8,8,9,9,10,10,11,11,12,12,13,13,14,14,15,15]
    vpmovzxwd    %xmm4, %ymm4            # ymm4 = xmm4[0],zero,xmm4[1],zero,xmm4[2],zero,xmm4[3],zero,xmm4[4],zero,xmm4[5],zero,xmm4[6],zero,xmm4[7],zero
    vpslld    $31, %ymm4, %ymm4
    vmovups    23152(%rsp), %ymm5              # 32-byte Reload
    vmaskmovps    %ymm5, %ymm4, 96(%r11,%rax,4)
    vpmovzxbd    %xmm3, %ymm3            # ymm3 = xmm3[0],zero,zero,zero,xmm3[1],zero,zero,zero,xmm3[2],zero,zero,zero,xmm3[3],zero,zero,zero,xmm3[4],zero,zero,zero,xmm3[5],zero,zero,zero,xmm3[6],zero,zero,zero,xmm3[7],zero,zero,zero
    vpslld    $31, %ymm3, %ymm3
    vmovups    23184(%rsp), %ymm4              # 32-byte Reload
    vmaskmovps    %ymm4, %ymm3, 64(%r11,%rax,4)
    vpunpckhbw    %xmm2, %xmm2, %xmm3     # xmm3 = xmm2[8,8,9,9,10,10,11,11,12,12,13,13,14,14,15,15]
    vpmovzxwd    %xmm3, %ymm3            # ymm3 = xmm3[0],zero,xmm3[1],zero,xmm3[2],zero,xmm3[3],zero,xmm3[4],zero,xmm3[5],zero,xmm3[6],zero,xmm3[7],zero
    vpslld    $31, %ymm3, %ymm3
    vmovups    23216(%rsp), %ymm4              # 32-byte Reload
    vmaskmovps    %ymm4, %ymm3, 32(%r11,%rax,4)
    vpmovzxbd    %xmm2, %ymm2            # ymm2 = xmm2[0],zero,zero,zero,xmm2[1],zero,zero,zero,xmm2[2],zero,zero,zero,xmm2[3],zero,zero,zero,xmm2[4],zero,zero,zero,xmm2[5],zero,zero,zero,xmm2[6],zero,zero,zero,xmm2[7],zero,zero,zero
    vpslld    $31, %ymm2, %ymm2
    vmovups    23248(%rsp), %ymm3              # 32-byte Reload
    vmaskmovps    %ymm3, %ymm2, (%r11,%rax,4)
    movl    20448(%rsp), %r8d               # 4-byte Reload
    .loc    1 60 39                         # mm.py:60:39
    vmovd    %r8d, %xmm2
    vpinsrb    $1, %r8d, %xmm2, %xmm2
    vpinsrb    $2, %r8d, %xmm2, %xmm2
    vpinsrb    $3, %r8d, %xmm2, %xmm2
    vpinsrb    $4, %r8d, %xmm2, %xmm2
    vpinsrb    $5, %r8d, %xmm2, %xmm2
    vpinsrb    $6, %r8d, %xmm2, %xmm2
    vpinsrb    $7, %r8d, %xmm2, %xmm2
    vpinsrb    $8, %r8d, %xmm2, %xmm2
    vpinsrb    $9, %r8d, %xmm2, %xmm2
    vpinsrb    $10, %r8d, %xmm2, %xmm2
    vpinsrb    $11, %r8d, %xmm2, %xmm2
    vpinsrb    $12, %r8d, %xmm2, %xmm2
    vpinsrb    $13, %r8d, %xmm2, %xmm2
    vpinsrb    $14, %r8d, %xmm2, %xmm2
    vpinsrb    $15, %r8d, %xmm2, %xmm2
    vmovd    %r8d, %xmm3
    vpinsrb    $1, %r8d, %xmm3, %xmm3
    vpinsrb    $2, %r8d, %xmm3, %xmm3
    vpinsrb    $3, %r8d, %xmm3, %xmm3
    vpinsrb    $4, %r8d, %xmm3, %xmm3
    vpinsrb    $5, %r8d, %xmm3, %xmm3
    vpinsrb    $6, %r8d, %xmm3, %xmm3
    vpinsrb    $7, %r8d, %xmm3, %xmm3
    vpinsrb    $8, %r8d, %xmm3, %xmm3
    vpinsrb    $9, %r8d, %xmm3, %xmm3
    vpinsrb    $10, %r8d, %xmm3, %xmm3
    vpinsrb    $11, %r8d, %xmm3, %xmm3
    vpinsrb    $12, %r8d, %xmm3, %xmm3
    vpinsrb    $13, %r8d, %xmm3, %xmm3
    vpinsrb    $14, %r8d, %xmm3, %xmm3
    vpinsrb    $15, %r8d, %xmm3, %xmm3
    vinserti128    $1, %xmm3, %ymm2, %ymm2
    vpand    %ymm1, %ymm2, %ymm2
    .loc    1 59 16                         # mm.py:59:16
    vextracti128    $1, %ymm2, %xmm3
    vpunpckhbw    %xmm3, %xmm3, %xmm4     # xmm4 = xmm3[8,8,9,9,10,10,11,11,12,12,13,13,14,14,15,15]
    vpmovzxwd    %xmm4, %ymm4            # ymm4 = xmm4[0],zero,xmm4[1],zero,xmm4[2],zero,xmm4[3],zero,xmm4[4],zero,xmm4[5],zero,xmm4[6],zero,xmm4[7],zero
    vpslld    $31, %ymm4, %ymm4
    movq    22528(%rsp), %r11               # 8-byte Reload
    vmovups    23280(%rsp), %ymm5              # 32-byte Reload
    vmaskmovps    %ymm5, %ymm4, 224(%r11,%rax,4)
    vpmovzxbd    %xmm3, %ymm3            # ymm3 = xmm3[0],zero,zero,zero,xmm3[1],zero,zero,zero,xmm3[2],zero,zero,zero,xmm3[3],zero,zero,zero,xmm3[4],zero,zero,zero,xmm3[5],zero,zero,zero,xmm3[6],zero,zero,zero,xmm3[7],zero,zero,zero
    vpslld    $31, %ymm3, %ymm3
    vmovups    23312(%rsp), %ymm4              # 32-byte Reload
    vmaskmovps    %ymm4, %ymm3, 192(%r11,%rax,4)
    vpunpckhbw    %xmm2, %xmm2, %xmm3     # xmm3 = xmm2[8,8,9,9,10,10,11,11,12,12,13,13,14,14,15,15]
    vpmovzxwd    %xmm3, %ymm3            # ymm3 = xmm3[0],zero,xmm3[1],zero,xmm3[2],zero,xmm3[3],zero,xmm3[4],zero,xmm3[5],zero,xmm3[6],zero,xmm3[7],zero
    vpslld    $31, %ymm3, %ymm3
    vmovups    23344(%rsp), %ymm4              # 32-byte Reload
    vmaskmovps    %ymm4, %ymm3, 160(%r11,%rax,4)
    vpmovzxbd    %xmm2, %ymm2            # ymm2 = xmm2[0],zero,zero,zero,xmm2[1],zero,zero,zero,xmm2[2],zero,zero,zero,xmm2[3],zero,zero,zero,xmm2[4],zero,zero,zero,xmm2[5],zero,zero,zero,xmm2[6],zero,zero,zero,xmm2[7],zero,zero,zero
    vpslld    $31, %ymm2, %ymm2
    vmovups    23376(%rsp), %ymm3              # 32-byte Reload
    vmaskmovps    %ymm3, %ymm2, 128(%r11,%rax,4)
    .loc    1 60 39                         # mm.py:60:39
    vmovd    %r8d, %xmm2
    vpinsrb    $1, %r8d, %xmm2, %xmm2
    vpinsrb    $2, %r8d, %xmm2, %xmm2
    vpinsrb    $3, %r8d, %xmm2, %xmm2
    vpinsrb    $4, %r8d, %xmm2, %xmm2
    vpinsrb    $5, %r8d, %xmm2, %xmm2
    vpinsrb    $6, %r8d, %xmm2, %xmm2
    vpinsrb    $7, %r8d, %xmm2, %xmm2
    vpinsrb    $8, %r8d, %xmm2, %xmm2
    vpinsrb    $9, %r8d, %xmm2, %xmm2
    vpinsrb    $10, %r8d, %xmm2, %xmm2
    vpinsrb    $11, %r8d, %xmm2, %xmm2
    vpinsrb    $12, %r8d, %xmm2, %xmm2
    vpinsrb    $13, %r8d, %xmm2, %xmm2
    vpinsrb    $14, %r8d, %xmm2, %xmm2
    vpinsrb    $15, %r8d, %xmm2, %xmm2
    vmovd    %r8d, %xmm3
    vpinsrb    $1, %r8d, %xmm3, %xmm3
    vpinsrb    $2, %r8d, %xmm3, %xmm3
    vpinsrb    $3, %r8d, %xmm3, %xmm3
    vpinsrb    $4, %r8d, %xmm3, %xmm3
    vpinsrb    $5, %r8d, %xmm3, %xmm3
    vpinsrb    $6, %r8d, %xmm3, %xmm3
    vpinsrb    $7, %r8d, %xmm3, %xmm3
    vpinsrb    $8, %r8d, %xmm3, %xmm3
    vpinsrb    $9, %r8d, %xmm3, %xmm3
    vpinsrb    $10, %r8d, %xmm3, %xmm3
    vpinsrb    $11, %r8d, %xmm3, %xmm3
    vpinsrb    $12, %r8d, %xmm3, %xmm3
    vpinsrb    $13, %r8d, %xmm3, %xmm3
    vpinsrb    $14, %r8d, %xmm3, %xmm3
    vpinsrb    $15, %r8d, %xmm3, %xmm3
    vinserti128    $1, %xmm3, %ymm2, %ymm2
    vpand    %ymm0, %ymm2, %ymm2
    .loc    1 59 16                         # mm.py:59:16
    vextracti128    $1, %ymm2, %xmm3
    vpunpckhbw    %xmm3, %xmm3, %xmm4     # xmm4 = xmm3[8,8,9,9,10,10,11,11,12,12,13,13,14,14,15,15]
    vpmovzxwd    %xmm4, %ymm4            # ymm4 = xmm4[0],zero,xmm4[1],zero,xmm4[2],zero,xmm4[3],zero,xmm4[4],zero,xmm4[5],zero,xmm4[6],zero,xmm4[7],zero
    vpslld    $31, %ymm4, %ymm4
    vmovups    23408(%rsp), %ymm5              # 32-byte Reload
    vmaskmovps    %ymm5, %ymm4, 96(%r11,%rax,4)
    vpmovzxbd    %xmm3, %ymm3            # ymm3 = xmm3[0],zero,zero,zero,xmm3[1],zero,zero,zero,xmm3[2],zero,zero,zero,xmm3[3],zero,zero,zero,xmm3[4],zero,zero,zero,xmm3[5],zero,zero,zero,xmm3[6],zero,zero,zero,xmm3[7],zero,zero,zero
    vpslld    $31, %ymm3, %ymm3
    vmovups    23440(%rsp), %ymm4              # 32-byte Reload
    vmaskmovps    %ymm4, %ymm3, 64(%r11,%rax,4)
    vpunpckhbw    %xmm2, %xmm2, %xmm3     # xmm3 = xmm2[8,8,9,9,10,10,11,11,12,12,13,13,14,14,15,15]
    vpmovzxwd    %xmm3, %ymm3            # ymm3 = xmm3[0],zero,xmm3[1],zero,xmm3[2],zero,xmm3[3],zero,xmm3[4],zero,xmm3[5],zero,xmm3[6],zero,xmm3[7],zero
    vpslld    $31, %ymm3, %ymm3
    vmovups    23472(%rsp), %ymm4              # 32-byte Reload
    vmaskmovps    %ymm4, %ymm3, 32(%r11,%rax,4)
    vpmovzxbd    %xmm2, %ymm2            # ymm2 = xmm2[0],zero,zero,zero,xmm2[1],zero,zero,zero,xmm2[2],zero,zero,zero,xmm2[3],zero,zero,zero,xmm2[4],zero,zero,zero,xmm2[5],zero,zero,zero,xmm2[6],zero,zero,zero,xmm2[7],zero,zero,zero
    vpslld    $31, %ymm2, %ymm2
    vmovups    21264(%rsp), %ymm3              # 32-byte Reload
    vmaskmovps    %ymm3, %ymm2, (%r11,%rax,4)
    movl    20444(%rsp), %r8d               # 4-byte Reload
    .loc    1 60 39                         # mm.py:60:39
    vmovd    %r8d, %xmm2
    vpinsrb    $1, %r8d, %xmm2, %xmm2
    vpinsrb    $2, %r8d, %xmm2, %xmm2
    vpinsrb    $3, %r8d, %xmm2, %xmm2
    vpinsrb    $4, %r8d, %xmm2, %xmm2
    vpinsrb    $5, %r8d, %xmm2, %xmm2
    vpinsrb    $6, %r8d, %xmm2, %xmm2
    vpinsrb    $7, %r8d, %xmm2, %xmm2
    vpinsrb    $8, %r8d, %xmm2, %xmm2
    vpinsrb    $9, %r8d, %xmm2, %xmm2
    vpinsrb    $10, %r8d, %xmm2, %xmm2
    vpinsrb    $11, %r8d, %xmm2, %xmm2
    vpinsrb    $12, %r8d, %xmm2, %xmm2
    vpinsrb    $13, %r8d, %xmm2, %xmm2
    vpinsrb    $14, %r8d, %xmm2, %xmm2
    vpinsrb    $15, %r8d, %xmm2, %xmm2
    vmovd    %r8d, %xmm3
    vpinsrb    $1, %r8d, %xmm3, %xmm3
    vpinsrb    $2, %r8d, %xmm3, %xmm3
    vpinsrb    $3, %r8d, %xmm3, %xmm3
    vpinsrb    $4, %r8d, %xmm3, %xmm3
    vpinsrb    $5, %r8d, %xmm3, %xmm3
    vpinsrb    $6, %r8d, %xmm3, %xmm3
    vpinsrb    $7, %r8d, %xmm3, %xmm3
    vpinsrb    $8, %r8d, %xmm3, %xmm3
    vpinsrb    $9, %r8d, %xmm3, %xmm3
    vpinsrb    $10, %r8d, %xmm3, %xmm3
    vpinsrb    $11, %r8d, %xmm3, %xmm3
    vpinsrb    $12, %r8d, %xmm3, %xmm3
    vpinsrb    $13, %r8d, %xmm3, %xmm3
    vpinsrb    $14, %r8d, %xmm3, %xmm3
    vpinsrb    $15, %r8d, %xmm3, %xmm3
    vinserti128    $1, %xmm3, %ymm2, %ymm2
    vpand    %ymm1, %ymm2, %ymm2
    .loc    1 59 16                         # mm.py:59:16
    vextracti128    $1, %ymm2, %xmm3
    vpunpckhbw    %xmm3, %xmm3, %xmm4     # xmm4 = xmm3[8,8,9,9,10,10,11,11,12,12,13,13,14,14,15,15]
    vpmovzxwd    %xmm4, %ymm4            # ymm4 = xmm4[0],zero,xmm4[1],zero,xmm4[2],zero,xmm4[3],zero,xmm4[4],zero,xmm4[5],zero,xmm4[6],zero,xmm4[7],zero
    vpslld    $31, %ymm4, %ymm4
    movq    22520(%rsp), %r11               # 8-byte Reload
    vmovups    12704(%rsp), %ymm5              # 32-byte Reload
    vmaskmovps    %ymm5, %ymm4, 224(%r11,%rax,4)
    vpmovzxbd    %xmm3, %ymm3            # ymm3 = xmm3[0],zero,zero,zero,xmm3[1],zero,zero,zero,xmm3[2],zero,zero,zero,xmm3[3],zero,zero,zero,xmm3[4],zero,zero,zero,xmm3[5],zero,zero,zero,xmm3[6],zero,zero,zero,xmm3[7],zero,zero,zero
    vpslld    $31, %ymm3, %ymm3
    vmovups    23504(%rsp), %ymm4              # 32-byte Reload
    vmaskmovps    %ymm4, %ymm3, 192(%r11,%rax,4)
    vpunpckhbw    %xmm2, %xmm2, %xmm3     # xmm3 = xmm2[8,8,9,9,10,10,11,11,12,12,13,13,14,14,15,15]
    vpmovzxwd    %xmm3, %ymm3            # ymm3 = xmm3[0],zero,xmm3[1],zero,xmm3[2],zero,xmm3[3],zero,xmm3[4],zero,xmm3[5],zero,xmm3[6],zero,xmm3[7],zero
    vpslld    $31, %ymm3, %ymm3
    vmovups    23536(%rsp), %ymm4              # 32-byte Reload
    vmaskmovps    %ymm4, %ymm3, 160(%r11,%rax,4)
    vpmovzxbd    %xmm2, %ymm2            # ymm2 = xmm2[0],zero,zero,zero,xmm2[1],zero,zero,zero,xmm2[2],zero,zero,zero,xmm2[3],zero,zero,zero,xmm2[4],zero,zero,zero,xmm2[5],zero,zero,zero,xmm2[6],zero,zero,zero,xmm2[7],zero,zero,zero
    vpslld    $31, %ymm2, %ymm2
    vmovups    23568(%rsp), %ymm3              # 32-byte Reload
    vmaskmovps    %ymm3, %ymm2, 128(%r11,%rax,4)
    .loc    1 60 39                         # mm.py:60:39
    vmovd    %r8d, %xmm2
    vpinsrb    $1, %r8d, %xmm2, %xmm2
    vpinsrb    $2, %r8d, %xmm2, %xmm2
    vpinsrb    $3, %r8d, %xmm2, %xmm2
    vpinsrb    $4, %r8d, %xmm2, %xmm2
    vpinsrb    $5, %r8d, %xmm2, %xmm2
    vpinsrb    $6, %r8d, %xmm2, %xmm2
    vpinsrb    $7, %r8d, %xmm2, %xmm2
    vpinsrb    $8, %r8d, %xmm2, %xmm2
    vpinsrb    $9, %r8d, %xmm2, %xmm2
    vpinsrb    $10, %r8d, %xmm2, %xmm2
    vpinsrb    $11, %r8d, %xmm2, %xmm2
    vpinsrb    $12, %r8d, %xmm2, %xmm2
    vpinsrb    $13, %r8d, %xmm2, %xmm2
    vpinsrb    $14, %r8d, %xmm2, %xmm2
    vpinsrb    $15, %r8d, %xmm2, %xmm2
    vmovd    %r8d, %xmm3
    vpinsrb    $1, %r8d, %xmm3, %xmm3
    vpinsrb    $2, %r8d, %xmm3, %xmm3
    vpinsrb    $3, %r8d, %xmm3, %xmm3
    vpinsrb    $4, %r8d, %xmm3, %xmm3
    vpinsrb    $5, %r8d, %xmm3, %xmm3
    vpinsrb    $6, %r8d, %xmm3, %xmm3
    vpinsrb    $7, %r8d, %xmm3, %xmm3
    vpinsrb    $8, %r8d, %xmm3, %xmm3
    vpinsrb    $9, %r8d, %xmm3, %xmm3
    vpinsrb    $10, %r8d, %xmm3, %xmm3
    vpinsrb    $11, %r8d, %xmm3, %xmm3
    vpinsrb    $12, %r8d, %xmm3, %xmm3
    vpinsrb    $13, %r8d, %xmm3, %xmm3
    vpinsrb    $14, %r8d, %xmm3, %xmm3
    vpinsrb    $15, %r8d, %xmm3, %xmm3
    vinserti128    $1, %xmm3, %ymm2, %ymm2
    vpand    %ymm0, %ymm2, %ymm2
    .loc    1 59 16                         # mm.py:59:16
    vextracti128    $1, %ymm2, %xmm3
    vpunpckhbw    %xmm3, %xmm3, %xmm4     # xmm4 = xmm3[8,8,9,9,10,10,11,11,12,12,13,13,14,14,15,15]
    vpmovzxwd    %xmm4, %ymm4            # ymm4 = xmm4[0],zero,xmm4[1],zero,xmm4[2],zero,xmm4[3],zero,xmm4[4],zero,xmm4[5],zero,xmm4[6],zero,xmm4[7],zero
    vpslld    $31, %ymm4, %ymm4
    vmovups    23600(%rsp), %ymm5              # 32-byte Reload
    vmaskmovps    %ymm5, %ymm4, 96(%r11,%rax,4)
    vpmovzxbd    %xmm3, %ymm3            # ymm3 = xmm3[0],zero,zero,zero,xmm3[1],zero,zero,zero,xmm3[2],zero,zero,zero,xmm3[3],zero,zero,zero,xmm3[4],zero,zero,zero,xmm3[5],zero,zero,zero,xmm3[6],zero,zero,zero,xmm3[7],zero,zero,zero
    vpslld    $31, %ymm3, %ymm3
    vmovups    23632(%rsp), %ymm4              # 32-byte Reload
    vmaskmovps    %ymm4, %ymm3, 64(%r11,%rax,4)
    vpunpckhbw    %xmm2, %xmm2, %xmm3     # xmm3 = xmm2[8,8,9,9,10,10,11,11,12,12,13,13,14,14,15,15]
    vpmovzxwd    %xmm3, %ymm3            # ymm3 = xmm3[0],zero,xmm3[1],zero,xmm3[2],zero,xmm3[3],zero,xmm3[4],zero,xmm3[5],zero,xmm3[6],zero,xmm3[7],zero
    vpslld    $31, %ymm3, %ymm3
    vmovups    23664(%rsp), %ymm4              # 32-byte Reload
    vmaskmovps    %ymm4, %ymm3, 32(%r11,%rax,4)
    vpmovzxbd    %xmm2, %ymm2            # ymm2 = xmm2[0],zero,zero,zero,xmm2[1],zero,zero,zero,xmm2[2],zero,zero,zero,xmm2[3],zero,zero,zero,xmm2[4],zero,zero,zero,xmm2[5],zero,zero,zero,xmm2[6],zero,zero,zero,xmm2[7],zero,zero,zero
    vpslld    $31, %ymm2, %ymm2
    vmovups    23696(%rsp), %ymm3              # 32-byte Reload
    vmaskmovps    %ymm3, %ymm2, (%r11,%rax,4)
    movl    20440(%rsp), %r8d               # 4-byte Reload
    .loc    1 60 39                         # mm.py:60:39
    vmovd    %r8d, %xmm2
    vpinsrb    $1, %r8d, %xmm2, %xmm2
    vpinsrb    $2, %r8d, %xmm2, %xmm2
    vpinsrb    $3, %r8d, %xmm2, %xmm2
    vpinsrb    $4, %r8d, %xmm2, %xmm2
    vpinsrb    $5, %r8d, %xmm2, %xmm2
    vpinsrb    $6, %r8d, %xmm2, %xmm2
    vpinsrb    $7, %r8d, %xmm2, %xmm2
    vpinsrb    $8, %r8d, %xmm2, %xmm2
    vpinsrb    $9, %r8d, %xmm2, %xmm2
    vpinsrb    $10, %r8d, %xmm2, %xmm2
    vpinsrb    $11, %r8d, %xmm2, %xmm2
    vpinsrb    $12, %r8d, %xmm2, %xmm2
    vpinsrb    $13, %r8d, %xmm2, %xmm2
    vpinsrb    $14, %r8d, %xmm2, %xmm2
    vpinsrb    $15, %r8d, %xmm2, %xmm2
    vmovd    %r8d, %xmm3
    vpinsrb    $1, %r8d, %xmm3, %xmm3
    vpinsrb    $2, %r8d, %xmm3, %xmm3
    vpinsrb    $3, %r8d, %xmm3, %xmm3
    vpinsrb    $4, %r8d, %xmm3, %xmm3
    vpinsrb    $5, %r8d, %xmm3, %xmm3
    vpinsrb    $6, %r8d, %xmm3, %xmm3
    vpinsrb    $7, %r8d, %xmm3, %xmm3
    vpinsrb    $8, %r8d, %xmm3, %xmm3
    vpinsrb    $9, %r8d, %xmm3, %xmm3
    vpinsrb    $10, %r8d, %xmm3, %xmm3
    vpinsrb    $11, %r8d, %xmm3, %xmm3
    vpinsrb    $12, %r8d, %xmm3, %xmm3
    vpinsrb    $13, %r8d, %xmm3, %xmm3
    vpinsrb    $14, %r8d, %xmm3, %xmm3
    vpinsrb    $15, %r8d, %xmm3, %xmm3
    vinserti128    $1, %xmm3, %ymm2, %ymm2
    vpand    %ymm1, %ymm2, %ymm2
    .loc    1 59 16                         # mm.py:59:16
    vextracti128    $1, %ymm2, %xmm3
    vpunpckhbw    %xmm3, %xmm3, %xmm4     # xmm4 = xmm3[8,8,9,9,10,10,11,11,12,12,13,13,14,14,15,15]
    vpmovzxwd    %xmm4, %ymm4            # ymm4 = xmm4[0],zero,xmm4[1],zero,xmm4[2],zero,xmm4[3],zero,xmm4[4],zero,xmm4[5],zero,xmm4[6],zero,xmm4[7],zero
    vpslld    $31, %ymm4, %ymm4
    movq    22512(%rsp), %r11               # 8-byte Reload
    vmovups    20752(%rsp), %ymm5              # 32-byte Reload
    vmaskmovps    %ymm5, %ymm4, 224(%r11,%rax,4)
    vpmovzxbd    %xmm3, %ymm3            # ymm3 = xmm3[0],zero,zero,zero,xmm3[1],zero,zero,zero,xmm3[2],zero,zero,zero,xmm3[3],zero,zero,zero,xmm3[4],zero,zero,zero,xmm3[5],zero,zero,zero,xmm3[6],zero,zero,zero,xmm3[7],zero,zero,zero
    vpslld    $31, %ymm3, %ymm3
    vmovups    23728(%rsp), %ymm4              # 32-byte Reload
    vmaskmovps    %ymm4, %ymm3, 192(%r11,%rax,4)
    vpunpckhbw    %xmm2, %xmm2, %xmm3     # xmm3 = xmm2[8,8,9,9,10,10,11,11,12,12,13,13,14,14,15,15]
    vpmovzxwd    %xmm3, %ymm3            # ymm3 = xmm3[0],zero,xmm3[1],zero,xmm3[2],zero,xmm3[3],zero,xmm3[4],zero,xmm3[5],zero,xmm3[6],zero,xmm3[7],zero
    vpslld    $31, %ymm3, %ymm3
    vmovups    23760(%rsp), %ymm4              # 32-byte Reload
    vmaskmovps    %ymm4, %ymm3, 160(%r11,%rax,4)
    vpmovzxbd    %xmm2, %ymm2            # ymm2 = xmm2[0],zero,zero,zero,xmm2[1],zero,zero,zero,xmm2[2],zero,zero,zero,xmm2[3],zero,zero,zero,xmm2[4],zero,zero,zero,xmm2[5],zero,zero,zero,xmm2[6],zero,zero,zero,xmm2[7],zero,zero,zero
    vpslld    $31, %ymm2, %ymm2
    vmovups    23792(%rsp), %ymm3              # 32-byte Reload
    vmaskmovps    %ymm3, %ymm2, 128(%r11,%rax,4)
    .loc    1 60 39                         # mm.py:60:39
    vmovd    %r8d, %xmm2
    vpinsrb    $1, %r8d, %xmm2, %xmm2
    vpinsrb    $2, %r8d, %xmm2, %xmm2
    vpinsrb    $3, %r8d, %xmm2, %xmm2
    vpinsrb    $4, %r8d, %xmm2, %xmm2
    vpinsrb    $5, %r8d, %xmm2, %xmm2
    vpinsrb    $6, %r8d, %xmm2, %xmm2
    vpinsrb    $7, %r8d, %xmm2, %xmm2
    vpinsrb    $8, %r8d, %xmm2, %xmm2
    vpinsrb    $9, %r8d, %xmm2, %xmm2
    vpinsrb    $10, %r8d, %xmm2, %xmm2
    vpinsrb    $11, %r8d, %xmm2, %xmm2
    vpinsrb    $12, %r8d, %xmm2, %xmm2
    vpinsrb    $13, %r8d, %xmm2, %xmm2
    vpinsrb    $14, %r8d, %xmm2, %xmm2
    vpinsrb    $15, %r8d, %xmm2, %xmm2
    vmovd    %r8d, %xmm3
    vpinsrb    $1, %r8d, %xmm3, %xmm3
    vpinsrb    $2, %r8d, %xmm3, %xmm3
    vpinsrb    $3, %r8d, %xmm3, %xmm3
    vpinsrb    $4, %r8d, %xmm3, %xmm3
    vpinsrb    $5, %r8d, %xmm3, %xmm3
    vpinsrb    $6, %r8d, %xmm3, %xmm3
    vpinsrb    $7, %r8d, %xmm3, %xmm3
    vpinsrb    $8, %r8d, %xmm3, %xmm3
    vpinsrb    $9, %r8d, %xmm3, %xmm3
    vpinsrb    $10, %r8d, %xmm3, %xmm3
    vpinsrb    $11, %r8d, %xmm3, %xmm3
    vpinsrb    $12, %r8d, %xmm3, %xmm3
    vpinsrb    $13, %r8d, %xmm3, %xmm3
    vpinsrb    $14, %r8d, %xmm3, %xmm3
    vpinsrb    $15, %r8d, %xmm3, %xmm3
    vinserti128    $1, %xmm3, %ymm2, %ymm2
    vpand    %ymm0, %ymm2, %ymm2
    .loc    1 59 16                         # mm.py:59:16
    vextracti128    $1, %ymm2, %xmm3
    vpunpckhbw    %xmm3, %xmm3, %xmm4     # xmm4 = xmm3[8,8,9,9,10,10,11,11,12,12,13,13,14,14,15,15]
    vpmovzxwd    %xmm4, %ymm4            # ymm4 = xmm4[0],zero,xmm4[1],zero,xmm4[2],zero,xmm4[3],zero,xmm4[4],zero,xmm4[5],zero,xmm4[6],zero,xmm4[7],zero
    vpslld    $31, %ymm4, %ymm4
    vmovups    23824(%rsp), %ymm5              # 32-byte Reload
    vmaskmovps    %ymm5, %ymm4, 96(%r11,%rax,4)
    vpmovzxbd    %xmm3, %ymm3            # ymm3 = xmm3[0],zero,zero,zero,xmm3[1],zero,zero,zero,xmm3[2],zero,zero,zero,xmm3[3],zero,zero,zero,xmm3[4],zero,zero,zero,xmm3[5],zero,zero,zero,xmm3[6],zero,zero,zero,xmm3[7],zero,zero,zero
    vpslld    $31, %ymm3, %ymm3
    vmovups    23856(%rsp), %ymm4              # 32-byte Reload
    vmaskmovps    %ymm4, %ymm3, 64(%r11,%rax,4)
    vpunpckhbw    %xmm2, %xmm2, %xmm3     # xmm3 = xmm2[8,8,9,9,10,10,11,11,12,12,13,13,14,14,15,15]
    vpmovzxwd    %xmm3, %ymm3            # ymm3 = xmm3[0],zero,xmm3[1],zero,xmm3[2],zero,xmm3[3],zero,xmm3[4],zero,xmm3[5],zero,xmm3[6],zero,xmm3[7],zero
    vpslld    $31, %ymm3, %ymm3
    vmovups    23888(%rsp), %ymm4              # 32-byte Reload
    vmaskmovps    %ymm4, %ymm3, 32(%r11,%rax,4)
    vpmovzxbd    %xmm2, %ymm2            # ymm2 = xmm2[0],zero,zero,zero,xmm2[1],zero,zero,zero,xmm2[2],zero,zero,zero,xmm2[3],zero,zero,zero,xmm2[4],zero,zero,zero,xmm2[5],zero,zero,zero,xmm2[6],zero,zero,zero,xmm2[7],zero,zero,zero
    vpslld    $31, %ymm2, %ymm2
    vmovups    23920(%rsp), %ymm3              # 32-byte Reload
    vmaskmovps    %ymm3, %ymm2, (%r11,%rax,4)
    movl    20436(%rsp), %r8d               # 4-byte Reload
    .loc    1 60 39                         # mm.py:60:39
    vmovd    %r8d, %xmm2
    vpinsrb    $1, %r8d, %xmm2, %xmm2
    vpinsrb    $2, %r8d, %xmm2, %xmm2
    vpinsrb    $3, %r8d, %xmm2, %xmm2
    vpinsrb    $4, %r8d, %xmm2, %xmm2
    vpinsrb    $5, %r8d, %xmm2, %xmm2
    vpinsrb    $6, %r8d, %xmm2, %xmm2
    vpinsrb    $7, %r8d, %xmm2, %xmm2
    vpinsrb    $8, %r8d, %xmm2, %xmm2
    vpinsrb    $9, %r8d, %xmm2, %xmm2
    vpinsrb    $10, %r8d, %xmm2, %xmm2
    vpinsrb    $11, %r8d, %xmm2, %xmm2
    vpinsrb    $12, %r8d, %xmm2, %xmm2
    vpinsrb    $13, %r8d, %xmm2, %xmm2
    vpinsrb    $14, %r8d, %xmm2, %xmm2
    vpinsrb    $15, %r8d, %xmm2, %xmm2
    vmovd    %r8d, %xmm3
    vpinsrb    $1, %r8d, %xmm3, %xmm3
    vpinsrb    $2, %r8d, %xmm3, %xmm3
    vpinsrb    $3, %r8d, %xmm3, %xmm3
    vpinsrb    $4, %r8d, %xmm3, %xmm3
    vpinsrb    $5, %r8d, %xmm3, %xmm3
    vpinsrb    $6, %r8d, %xmm3, %xmm3
    vpinsrb    $7, %r8d, %xmm3, %xmm3
    vpinsrb    $8, %r8d, %xmm3, %xmm3
    vpinsrb    $9, %r8d, %xmm3, %xmm3
    vpinsrb    $10, %r8d, %xmm3, %xmm3
    vpinsrb    $11, %r8d, %xmm3, %xmm3
    vpinsrb    $12, %r8d, %xmm3, %xmm3
    vpinsrb    $13, %r8d, %xmm3, %xmm3
    vpinsrb    $14, %r8d, %xmm3, %xmm3
    vpinsrb    $15, %r8d, %xmm3, %xmm3
    vinserti128    $1, %xmm3, %ymm2, %ymm2
    vpand    %ymm1, %ymm2, %ymm2
    .loc    1 59 16                         # mm.py:59:16
    vextracti128    $1, %ymm2, %xmm3
    vpunpckhbw    %xmm3, %xmm3, %xmm4     # xmm4 = xmm3[8,8,9,9,10,10,11,11,12,12,13,13,14,14,15,15]
    vpmovzxwd    %xmm4, %ymm4            # ymm4 = xmm4[0],zero,xmm4[1],zero,xmm4[2],zero,xmm4[3],zero,xmm4[4],zero,xmm4[5],zero,xmm4[6],zero,xmm4[7],zero
    vpslld    $31, %ymm4, %ymm4
    movq    22504(%rsp), %r11               # 8-byte Reload
    vmovups    23952(%rsp), %ymm5              # 32-byte Reload
    vmaskmovps    %ymm5, %ymm4, 224(%r11,%rax,4)
    vpmovzxbd    %xmm3, %ymm3            # ymm3 = xmm3[0],zero,zero,zero,xmm3[1],zero,zero,zero,xmm3[2],zero,zero,zero,xmm3[3],zero,zero,zero,xmm3[4],zero,zero,zero,xmm3[5],zero,zero,zero,xmm3[6],zero,zero,zero,xmm3[7],zero,zero,zero
    vpslld    $31, %ymm3, %ymm3
    vmovups    23984(%rsp), %ymm4              # 32-byte Reload
    vmaskmovps    %ymm4, %ymm3, 192(%r11,%rax,4)
    vpunpckhbw    %xmm2, %xmm2, %xmm3     # xmm3 = xmm2[8,8,9,9,10,10,11,11,12,12,13,13,14,14,15,15]
    vpmovzxwd    %xmm3, %ymm3            # ymm3 = xmm3[0],zero,xmm3[1],zero,xmm3[2],zero,xmm3[3],zero,xmm3[4],zero,xmm3[5],zero,xmm3[6],zero,xmm3[7],zero
    vpslld    $31, %ymm3, %ymm3
    vmovups    24016(%rsp), %ymm4              # 32-byte Reload
    vmaskmovps    %ymm4, %ymm3, 160(%r11,%rax,4)
    vpmovzxbd    %xmm2, %ymm2            # ymm2 = xmm2[0],zero,zero,zero,xmm2[1],zero,zero,zero,xmm2[2],zero,zero,zero,xmm2[3],zero,zero,zero,xmm2[4],zero,zero,zero,xmm2[5],zero,zero,zero,xmm2[6],zero,zero,zero,xmm2[7],zero,zero,zero
    vpslld    $31, %ymm2, %ymm2
    vmovups    24048(%rsp), %ymm3              # 32-byte Reload
    vmaskmovps    %ymm3, %ymm2, 128(%r11,%rax,4)
    .loc    1 60 39                         # mm.py:60:39
    vmovd    %r8d, %xmm2
    vpinsrb    $1, %r8d, %xmm2, %xmm2
    vpinsrb    $2, %r8d, %xmm2, %xmm2
    vpinsrb    $3, %r8d, %xmm2, %xmm2
    vpinsrb    $4, %r8d, %xmm2, %xmm2
    vpinsrb    $5, %r8d, %xmm2, %xmm2
    vpinsrb    $6, %r8d, %xmm2, %xmm2
    vpinsrb    $7, %r8d, %xmm2, %xmm2
    vpinsrb    $8, %r8d, %xmm2, %xmm2
    vpinsrb    $9, %r8d, %xmm2, %xmm2
    vpinsrb    $10, %r8d, %xmm2, %xmm2
    vpinsrb    $11, %r8d, %xmm2, %xmm2
    vpinsrb    $12, %r8d, %xmm2, %xmm2
    vpinsrb    $13, %r8d, %xmm2, %xmm2
    vpinsrb    $14, %r8d, %xmm2, %xmm2
    vpinsrb    $15, %r8d, %xmm2, %xmm2
    vmovd    %r8d, %xmm3
    vpinsrb    $1, %r8d, %xmm3, %xmm3
    vpinsrb    $2, %r8d, %xmm3, %xmm3
    vpinsrb    $3, %r8d, %xmm3, %xmm3
    vpinsrb    $4, %r8d, %xmm3, %xmm3
    vpinsrb    $5, %r8d, %xmm3, %xmm3
    vpinsrb    $6, %r8d, %xmm3, %xmm3
    vpinsrb    $7, %r8d, %xmm3, %xmm3
    vpinsrb    $8, %r8d, %xmm3, %xmm3
    vpinsrb    $9, %r8d, %xmm3, %xmm3
    vpinsrb    $10, %r8d, %xmm3, %xmm3
    vpinsrb    $11, %r8d, %xmm3, %xmm3
    vpinsrb    $12, %r8d, %xmm3, %xmm3
    vpinsrb    $13, %r8d, %xmm3, %xmm3
    vpinsrb    $14, %r8d, %xmm3, %xmm3
    vpinsrb    $15, %r8d, %xmm3, %xmm3
    vinserti128    $1, %xmm3, %ymm2, %ymm2
    vpand    %ymm0, %ymm2, %ymm2
    .loc    1 59 16                         # mm.py:59:16
    vextracti128    $1, %ymm2, %xmm3
    vpunpckhbw    %xmm3, %xmm3, %xmm4     # xmm4 = xmm3[8,8,9,9,10,10,11,11,12,12,13,13,14,14,15,15]
    vpmovzxwd    %xmm4, %ymm4            # ymm4 = xmm4[0],zero,xmm4[1],zero,xmm4[2],zero,xmm4[3],zero,xmm4[4],zero,xmm4[5],zero,xmm4[6],zero,xmm4[7],zero
    vpslld    $31, %ymm4, %ymm4
    vmovups    24080(%rsp), %ymm5              # 32-byte Reload
    vmaskmovps    %ymm5, %ymm4, 96(%r11,%rax,4)
    vpmovzxbd    %xmm3, %ymm3            # ymm3 = xmm3[0],zero,zero,zero,xmm3[1],zero,zero,zero,xmm3[2],zero,zero,zero,xmm3[3],zero,zero,zero,xmm3[4],zero,zero,zero,xmm3[5],zero,zero,zero,xmm3[6],zero,zero,zero,xmm3[7],zero,zero,zero
    vpslld    $31, %ymm3, %ymm3
    vmovups    24112(%rsp), %ymm4              # 32-byte Reload
    vmaskmovps    %ymm4, %ymm3, 64(%r11,%rax,4)
    vpunpckhbw    %xmm2, %xmm2, %xmm3     # xmm3 = xmm2[8,8,9,9,10,10,11,11,12,12,13,13,14,14,15,15]
    vpmovzxwd    %xmm3, %ymm3            # ymm3 = xmm3[0],zero,xmm3[1],zero,xmm3[2],zero,xmm3[3],zero,xmm3[4],zero,xmm3[5],zero,xmm3[6],zero,xmm3[7],zero
    vpslld    $31, %ymm3, %ymm3
    vmovups    24144(%rsp), %ymm4              # 32-byte Reload
    vmaskmovps    %ymm4, %ymm3, 32(%r11,%rax,4)
    vpmovzxbd    %xmm2, %ymm2            # ymm2 = xmm2[0],zero,zero,zero,xmm2[1],zero,zero,zero,xmm2[2],zero,zero,zero,xmm2[3],zero,zero,zero,xmm2[4],zero,zero,zero,xmm2[5],zero,zero,zero,xmm2[6],zero,zero,zero,xmm2[7],zero,zero,zero
    vpslld    $31, %ymm2, %ymm2
    vmovups    24176(%rsp), %ymm3              # 32-byte Reload
    vmaskmovps    %ymm3, %ymm2, (%r11,%rax,4)
    movl    20432(%rsp), %r8d               # 4-byte Reload
    .loc    1 60 39                         # mm.py:60:39
    vmovd    %r8d, %xmm2
    vpinsrb    $1, %r8d, %xmm2, %xmm2
    vpinsrb    $2, %r8d, %xmm2, %xmm2
    vpinsrb    $3, %r8d, %xmm2, %xmm2
    vpinsrb    $4, %r8d, %xmm2, %xmm2
    vpinsrb    $5, %r8d, %xmm2, %xmm2
    vpinsrb    $6, %r8d, %xmm2, %xmm2
    vpinsrb    $7, %r8d, %xmm2, %xmm2
    vpinsrb    $8, %r8d, %xmm2, %xmm2
    vpinsrb    $9, %r8d, %xmm2, %xmm2
    vpinsrb    $10, %r8d, %xmm2, %xmm2
    vpinsrb    $11, %r8d, %xmm2, %xmm2
    vpinsrb    $12, %r8d, %xmm2, %xmm2
    vpinsrb    $13, %r8d, %xmm2, %xmm2
    vpinsrb    $14, %r8d, %xmm2, %xmm2
    vpinsrb    $15, %r8d, %xmm2, %xmm2
    vmovd    %r8d, %xmm3
    vpinsrb    $1, %r8d, %xmm3, %xmm3
    vpinsrb    $2, %r8d, %xmm3, %xmm3
    vpinsrb    $3, %r8d, %xmm3, %xmm3
    vpinsrb    $4, %r8d, %xmm3, %xmm3
    vpinsrb    $5, %r8d, %xmm3, %xmm3
    vpinsrb    $6, %r8d, %xmm3, %xmm3
    vpinsrb    $7, %r8d, %xmm3, %xmm3
    vpinsrb    $8, %r8d, %xmm3, %xmm3
    vpinsrb    $9, %r8d, %xmm3, %xmm3
    vpinsrb    $10, %r8d, %xmm3, %xmm3
    vpinsrb    $11, %r8d, %xmm3, %xmm3
    vpinsrb    $12, %r8d, %xmm3, %xmm3
    vpinsrb    $13, %r8d, %xmm3, %xmm3
    vpinsrb    $14, %r8d, %xmm3, %xmm3
    vpinsrb    $15, %r8d, %xmm3, %xmm3
    vinserti128    $1, %xmm3, %ymm2, %ymm2
    vpand    %ymm1, %ymm2, %ymm2
    .loc    1 59 16                         # mm.py:59:16
    vextracti128    $1, %ymm2, %xmm3
    vpunpckhbw    %xmm3, %xmm3, %xmm4     # xmm4 = xmm3[8,8,9,9,10,10,11,11,12,12,13,13,14,14,15,15]
    vpmovzxwd    %xmm4, %ymm4            # ymm4 = xmm4[0],zero,xmm4[1],zero,xmm4[2],zero,xmm4[3],zero,xmm4[4],zero,xmm4[5],zero,xmm4[6],zero,xmm4[7],zero
    vpslld    $31, %ymm4, %ymm4
    movq    22496(%rsp), %r11               # 8-byte Reload
    vmovups    16224(%rsp), %ymm5              # 32-byte Reload
    vmaskmovps    %ymm5, %ymm4, 224(%r11,%rax,4)
    vpmovzxbd    %xmm3, %ymm3            # ymm3 = xmm3[0],zero,zero,zero,xmm3[1],zero,zero,zero,xmm3[2],zero,zero,zero,xmm3[3],zero,zero,zero,xmm3[4],zero,zero,zero,xmm3[5],zero,zero,zero,xmm3[6],zero,zero,zero,xmm3[7],zero,zero,zero
    vpslld    $31, %ymm3, %ymm3
    vmovups    24208(%rsp), %ymm4              # 32-byte Reload
    vmaskmovps    %ymm4, %ymm3, 192(%r11,%rax,4)
    vpunpckhbw    %xmm2, %xmm2, %xmm3     # xmm3 = xmm2[8,8,9,9,10,10,11,11,12,12,13,13,14,14,15,15]
    vpmovzxwd    %xmm3, %ymm3            # ymm3 = xmm3[0],zero,xmm3[1],zero,xmm3[2],zero,xmm3[3],zero,xmm3[4],zero,xmm3[5],zero,xmm3[6],zero,xmm3[7],zero
    vpslld    $31, %ymm3, %ymm3
    vmovups    24240(%rsp), %ymm4              # 32-byte Reload
    vmaskmovps    %ymm4, %ymm3, 160(%r11,%rax,4)
    vpmovzxbd    %xmm2, %ymm2            # ymm2 = xmm2[0],zero,zero,zero,xmm2[1],zero,zero,zero,xmm2[2],zero,zero,zero,xmm2[3],zero,zero,zero,xmm2[4],zero,zero,zero,xmm2[5],zero,zero,zero,xmm2[6],zero,zero,zero,xmm2[7],zero,zero,zero
    vpslld    $31, %ymm2, %ymm2
    vmovups    24272(%rsp), %ymm3              # 32-byte Reload
    vmaskmovps    %ymm3, %ymm2, 128(%r11,%rax,4)
    .loc    1 60 39                         # mm.py:60:39
    vmovd    %r8d, %xmm2
    vpinsrb    $1, %r8d, %xmm2, %xmm2
    vpinsrb    $2, %r8d, %xmm2, %xmm2
    vpinsrb    $3, %r8d, %xmm2, %xmm2
    vpinsrb    $4, %r8d, %xmm2, %xmm2
    vpinsrb    $5, %r8d, %xmm2, %xmm2
    vpinsrb    $6, %r8d, %xmm2, %xmm2
    vpinsrb    $7, %r8d, %xmm2, %xmm2
    vpinsrb    $8, %r8d, %xmm2, %xmm2
    vpinsrb    $9, %r8d, %xmm2, %xmm2
    vpinsrb    $10, %r8d, %xmm2, %xmm2
    vpinsrb    $11, %r8d, %xmm2, %xmm2
    vpinsrb    $12, %r8d, %xmm2, %xmm2
    vpinsrb    $13, %r8d, %xmm2, %xmm2
    vpinsrb    $14, %r8d, %xmm2, %xmm2
    vpinsrb    $15, %r8d, %xmm2, %xmm2
    vmovd    %r8d, %xmm3
    vpinsrb    $1, %r8d, %xmm3, %xmm3
    vpinsrb    $2, %r8d, %xmm3, %xmm3
    vpinsrb    $3, %r8d, %xmm3, %xmm3
    vpinsrb    $4, %r8d, %xmm3, %xmm3
    vpinsrb    $5, %r8d, %xmm3, %xmm3
    vpinsrb    $6, %r8d, %xmm3, %xmm3
    vpinsrb    $7, %r8d, %xmm3, %xmm3
    vpinsrb    $8, %r8d, %xmm3, %xmm3
    vpinsrb    $9, %r8d, %xmm3, %xmm3
    vpinsrb    $10, %r8d, %xmm3, %xmm3
    vpinsrb    $11, %r8d, %xmm3, %xmm3
    vpinsrb    $12, %r8d, %xmm3, %xmm3
    vpinsrb    $13, %r8d, %xmm3, %xmm3
    vpinsrb    $14, %r8d, %xmm3, %xmm3
    vpinsrb    $15, %r8d, %xmm3, %xmm3
    vinserti128    $1, %xmm3, %ymm2, %ymm2
    vpand    %ymm0, %ymm2, %ymm2
    .loc    1 59 16                         # mm.py:59:16
    vextracti128    $1, %ymm2, %xmm3
    vpunpckhbw    %xmm3, %xmm3, %xmm4     # xmm4 = xmm3[8,8,9,9,10,10,11,11,12,12,13,13,14,14,15,15]
    vpmovzxwd    %xmm4, %ymm4            # ymm4 = xmm4[0],zero,xmm4[1],zero,xmm4[2],zero,xmm4[3],zero,xmm4[4],zero,xmm4[5],zero,xmm4[6],zero,xmm4[7],zero
    vpslld    $31, %ymm4, %ymm4
    vmovups    24304(%rsp), %ymm5              # 32-byte Reload
    vmaskmovps    %ymm5, %ymm4, 96(%r11,%rax,4)
    vpmovzxbd    %xmm3, %ymm3            # ymm3 = xmm3[0],zero,zero,zero,xmm3[1],zero,zero,zero,xmm3[2],zero,zero,zero,xmm3[3],zero,zero,zero,xmm3[4],zero,zero,zero,xmm3[5],zero,zero,zero,xmm3[6],zero,zero,zero,xmm3[7],zero,zero,zero
    vpslld    $31, %ymm3, %ymm3
    vmovups    24336(%rsp), %ymm4              # 32-byte Reload
    vmaskmovps    %ymm4, %ymm3, 64(%r11,%rax,4)
    vpunpckhbw    %xmm2, %xmm2, %xmm3     # xmm3 = xmm2[8,8,9,9,10,10,11,11,12,12,13,13,14,14,15,15]
    vpmovzxwd    %xmm3, %ymm3            # ymm3 = xmm3[0],zero,xmm3[1],zero,xmm3[2],zero,xmm3[3],zero,xmm3[4],zero,xmm3[5],zero,xmm3[6],zero,xmm3[7],zero
    vpslld    $31, %ymm3, %ymm3
    vmovups    24368(%rsp), %ymm4              # 32-byte Reload
    vmaskmovps    %ymm4, %ymm3, 32(%r11,%rax,4)
    vpmovzxbd    %xmm2, %ymm2            # ymm2 = xmm2[0],zero,zero,zero,xmm2[1],zero,zero,zero,xmm2[2],zero,zero,zero,xmm2[3],zero,zero,zero,xmm2[4],zero,zero,zero,xmm2[5],zero,zero,zero,xmm2[6],zero,zero,zero,xmm2[7],zero,zero,zero
    vpslld    $31, %ymm2, %ymm2
    vmovups    24400(%rsp), %ymm3              # 32-byte Reload
    vmaskmovps    %ymm3, %ymm2, (%r11,%rax,4)
    movl    20428(%rsp), %r8d               # 4-byte Reload
    .loc    1 60 39                         # mm.py:60:39
    vmovd    %r8d, %xmm2
    vpinsrb    $1, %r8d, %xmm2, %xmm2
    vpinsrb    $2, %r8d, %xmm2, %xmm2
    vpinsrb    $3, %r8d, %xmm2, %xmm2
    vpinsrb    $4, %r8d, %xmm2, %xmm2
    vpinsrb    $5, %r8d, %xmm2, %xmm2
    vpinsrb    $6, %r8d, %xmm2, %xmm2
    vpinsrb    $7, %r8d, %xmm2, %xmm2
    vpinsrb    $8, %r8d, %xmm2, %xmm2
    vpinsrb    $9, %r8d, %xmm2, %xmm2
    vpinsrb    $10, %r8d, %xmm2, %xmm2
    vpinsrb    $11, %r8d, %xmm2, %xmm2
    vpinsrb    $12, %r8d, %xmm2, %xmm2
    vpinsrb    $13, %r8d, %xmm2, %xmm2
    vpinsrb    $14, %r8d, %xmm2, %xmm2
    vpinsrb    $15, %r8d, %xmm2, %xmm2
    vmovd    %r8d, %xmm3
    vpinsrb    $1, %r8d, %xmm3, %xmm3
    vpinsrb    $2, %r8d, %xmm3, %xmm3
    vpinsrb    $3, %r8d, %xmm3, %xmm3
    vpinsrb    $4, %r8d, %xmm3, %xmm3
    vpinsrb    $5, %r8d, %xmm3, %xmm3
    vpinsrb    $6, %r8d, %xmm3, %xmm3
    vpinsrb    $7, %r8d, %xmm3, %xmm3
    vpinsrb    $8, %r8d, %xmm3, %xmm3
    vpinsrb    $9, %r8d, %xmm3, %xmm3
    vpinsrb    $10, %r8d, %xmm3, %xmm3
    vpinsrb    $11, %r8d, %xmm3, %xmm3
    vpinsrb    $12, %r8d, %xmm3, %xmm3
    vpinsrb    $13, %r8d, %xmm3, %xmm3
    vpinsrb    $14, %r8d, %xmm3, %xmm3
    vpinsrb    $15, %r8d, %xmm3, %xmm3
    vinserti128    $1, %xmm3, %ymm2, %ymm2
    vpand    %ymm1, %ymm2, %ymm2
    .loc    1 59 16                         # mm.py:59:16
    vextracti128    $1, %ymm2, %xmm3
    vpunpckhbw    %xmm3, %xmm3, %xmm4     # xmm4 = xmm3[8,8,9,9,10,10,11,11,12,12,13,13,14,14,15,15]
    vpmovzxwd    %xmm4, %ymm4            # ymm4 = xmm4[0],zero,xmm4[1],zero,xmm4[2],zero,xmm4[3],zero,xmm4[4],zero,xmm4[5],zero,xmm4[6],zero,xmm4[7],zero
    vpslld    $31, %ymm4, %ymm4
    movq    22488(%rsp), %r11               # 8-byte Reload
    vmovups    24432(%rsp), %ymm5              # 32-byte Reload
    vmaskmovps    %ymm5, %ymm4, 224(%r11,%rax,4)
    vpmovzxbd    %xmm3, %ymm3            # ymm3 = xmm3[0],zero,zero,zero,xmm3[1],zero,zero,zero,xmm3[2],zero,zero,zero,xmm3[3],zero,zero,zero,xmm3[4],zero,zero,zero,xmm3[5],zero,zero,zero,xmm3[6],zero,zero,zero,xmm3[7],zero,zero,zero
    vpslld    $31, %ymm3, %ymm3
    vmovups    24464(%rsp), %ymm4              # 32-byte Reload
    vmaskmovps    %ymm4, %ymm3, 192(%r11,%rax,4)
    vpunpckhbw    %xmm2, %xmm2, %xmm3     # xmm3 = xmm2[8,8,9,9,10,10,11,11,12,12,13,13,14,14,15,15]
    vpmovzxwd    %xmm3, %ymm3            # ymm3 = xmm3[0],zero,xmm3[1],zero,xmm3[2],zero,xmm3[3],zero,xmm3[4],zero,xmm3[5],zero,xmm3[6],zero,xmm3[7],zero
    vpslld    $31, %ymm3, %ymm3
    vmovups    24496(%rsp), %ymm4              # 32-byte Reload
    vmaskmovps    %ymm4, %ymm3, 160(%r11,%rax,4)
    vpmovzxbd    %xmm2, %ymm2            # ymm2 = xmm2[0],zero,zero,zero,xmm2[1],zero,zero,zero,xmm2[2],zero,zero,zero,xmm2[3],zero,zero,zero,xmm2[4],zero,zero,zero,xmm2[5],zero,zero,zero,xmm2[6],zero,zero,zero,xmm2[7],zero,zero,zero
    vpslld    $31, %ymm2, %ymm2
    vmovups    24528(%rsp), %ymm3              # 32-byte Reload
    vmaskmovps    %ymm3, %ymm2, 128(%r11,%rax,4)
    .loc    1 60 39                         # mm.py:60:39
    vmovd    %r8d, %xmm2
    vpinsrb    $1, %r8d, %xmm2, %xmm2
    vpinsrb    $2, %r8d, %xmm2, %xmm2
    vpinsrb    $3, %r8d, %xmm2, %xmm2
    vpinsrb    $4, %r8d, %xmm2, %xmm2
    vpinsrb    $5, %r8d, %xmm2, %xmm2
    vpinsrb    $6, %r8d, %xmm2, %xmm2
    vpinsrb    $7, %r8d, %xmm2, %xmm2
    vpinsrb    $8, %r8d, %xmm2, %xmm2
    vpinsrb    $9, %r8d, %xmm2, %xmm2
    vpinsrb    $10, %r8d, %xmm2, %xmm2
    vpinsrb    $11, %r8d, %xmm2, %xmm2
    vpinsrb    $12, %r8d, %xmm2, %xmm2
    vpinsrb    $13, %r8d, %xmm2, %xmm2
    vpinsrb    $14, %r8d, %xmm2, %xmm2
    vpinsrb    $15, %r8d, %xmm2, %xmm2
    vmovd    %r8d, %xmm3
    vpinsrb    $1, %r8d, %xmm3, %xmm3
    vpinsrb    $2, %r8d, %xmm3, %xmm3
    vpinsrb    $3, %r8d, %xmm3, %xmm3
    vpinsrb    $4, %r8d, %xmm3, %xmm3
    vpinsrb    $5, %r8d, %xmm3, %xmm3
    vpinsrb    $6, %r8d, %xmm3, %xmm3
    vpinsrb    $7, %r8d, %xmm3, %xmm3
    vpinsrb    $8, %r8d, %xmm3, %xmm3
    vpinsrb    $9, %r8d, %xmm3, %xmm3
    vpinsrb    $10, %r8d, %xmm3, %xmm3
    vpinsrb    $11, %r8d, %xmm3, %xmm3
    vpinsrb    $12, %r8d, %xmm3, %xmm3
    vpinsrb    $13, %r8d, %xmm3, %xmm3
    vpinsrb    $14, %r8d, %xmm3, %xmm3
    vpinsrb    $15, %r8d, %xmm3, %xmm3
    vinserti128    $1, %xmm3, %ymm2, %ymm2
    vpand    %ymm0, %ymm2, %ymm2
    .loc    1 59 16                         # mm.py:59:16
    vextracti128    $1, %ymm2, %xmm3
    vpunpckhbw    %xmm3, %xmm3, %xmm4     # xmm4 = xmm3[8,8,9,9,10,10,11,11,12,12,13,13,14,14,15,15]
    vpmovzxwd    %xmm4, %ymm4            # ymm4 = xmm4[0],zero,xmm4[1],zero,xmm4[2],zero,xmm4[3],zero,xmm4[4],zero,xmm4[5],zero,xmm4[6],zero,xmm4[7],zero
    vpslld    $31, %ymm4, %ymm4
    vmovups    24560(%rsp), %ymm5              # 32-byte Reload
    vmaskmovps    %ymm5, %ymm4, 96(%r11,%rax,4)
    vpmovzxbd    %xmm3, %ymm3            # ymm3 = xmm3[0],zero,zero,zero,xmm3[1],zero,zero,zero,xmm3[2],zero,zero,zero,xmm3[3],zero,zero,zero,xmm3[4],zero,zero,zero,xmm3[5],zero,zero,zero,xmm3[6],zero,zero,zero,xmm3[7],zero,zero,zero
    vpslld    $31, %ymm3, %ymm3
    vmovups    24592(%rsp), %ymm4              # 32-byte Reload
    vmaskmovps    %ymm4, %ymm3, 64(%r11,%rax,4)
    vpunpckhbw    %xmm2, %xmm2, %xmm3     # xmm3 = xmm2[8,8,9,9,10,10,11,11,12,12,13,13,14,14,15,15]
    vpmovzxwd    %xmm3, %ymm3            # ymm3 = xmm3[0],zero,xmm3[1],zero,xmm3[2],zero,xmm3[3],zero,xmm3[4],zero,xmm3[5],zero,xmm3[6],zero,xmm3[7],zero
    vpslld    $31, %ymm3, %ymm3
    vmovups    24624(%rsp), %ymm4              # 32-byte Reload
    vmaskmovps    %ymm4, %ymm3, 32(%r11,%rax,4)
    vpmovzxbd    %xmm2, %ymm2            # ymm2 = xmm2[0],zero,zero,zero,xmm2[1],zero,zero,zero,xmm2[2],zero,zero,zero,xmm2[3],zero,zero,zero,xmm2[4],zero,zero,zero,xmm2[5],zero,zero,zero,xmm2[6],zero,zero,zero,xmm2[7],zero,zero,zero
    vpslld    $31, %ymm2, %ymm2
    vmovups    24656(%rsp), %ymm3              # 32-byte Reload
    vmaskmovps    %ymm3, %ymm2, (%r11,%rax,4)
    movl    20424(%rsp), %r8d               # 4-byte Reload
    .loc    1 60 39                         # mm.py:60:39
    vmovd    %r8d, %xmm2
    vpinsrb    $1, %r8d, %xmm2, %xmm2
    vpinsrb    $2, %r8d, %xmm2, %xmm2
    vpinsrb    $3, %r8d, %xmm2, %xmm2
    vpinsrb    $4, %r8d, %xmm2, %xmm2
    vpinsrb    $5, %r8d, %xmm2, %xmm2
    vpinsrb    $6, %r8d, %xmm2, %xmm2
    vpinsrb    $7, %r8d, %xmm2, %xmm2
    vpinsrb    $8, %r8d, %xmm2, %xmm2
    vpinsrb    $9, %r8d, %xmm2, %xmm2
    vpinsrb    $10, %r8d, %xmm2, %xmm2
    vpinsrb    $11, %r8d, %xmm2, %xmm2
    vpinsrb    $12, %r8d, %xmm2, %xmm2
    vpinsrb    $13, %r8d, %xmm2, %xmm2
    vpinsrb    $14, %r8d, %xmm2, %xmm2
    vpinsrb    $15, %r8d, %xmm2, %xmm2
    vmovd    %r8d, %xmm3
    vpinsrb    $1, %r8d, %xmm3, %xmm3
    vpinsrb    $2, %r8d, %xmm3, %xmm3
    vpinsrb    $3, %r8d, %xmm3, %xmm3
    vpinsrb    $4, %r8d, %xmm3, %xmm3
    vpinsrb    $5, %r8d, %xmm3, %xmm3
    vpinsrb    $6, %r8d, %xmm3, %xmm3
    vpinsrb    $7, %r8d, %xmm3, %xmm3
    vpinsrb    $8, %r8d, %xmm3, %xmm3
    vpinsrb    $9, %r8d, %xmm3, %xmm3
    vpinsrb    $10, %r8d, %xmm3, %xmm3
    vpinsrb    $11, %r8d, %xmm3, %xmm3
    vpinsrb    $12, %r8d, %xmm3, %xmm3
    vpinsrb    $13, %r8d, %xmm3, %xmm3
    vpinsrb    $14, %r8d, %xmm3, %xmm3
    vpinsrb    $15, %r8d, %xmm3, %xmm3
    vinserti128    $1, %xmm3, %ymm2, %ymm2
    vpand    %ymm1, %ymm2, %ymm2
    .loc    1 59 16                         # mm.py:59:16
    vextracti128    $1, %ymm2, %xmm3
    vpunpckhbw    %xmm3, %xmm3, %xmm4     # xmm4 = xmm3[8,8,9,9,10,10,11,11,12,12,13,13,14,14,15,15]
    vpmovzxwd    %xmm4, %ymm4            # ymm4 = xmm4[0],zero,xmm4[1],zero,xmm4[2],zero,xmm4[3],zero,xmm4[4],zero,xmm4[5],zero,xmm4[6],zero,xmm4[7],zero
    vpslld    $31, %ymm4, %ymm4
    movq    22480(%rsp), %r11               # 8-byte Reload
    vmovups    14272(%rsp), %ymm5              # 32-byte Reload
    vmaskmovps    %ymm5, %ymm4, 224(%r11,%rax,4)
    vpmovzxbd    %xmm3, %ymm3            # ymm3 = xmm3[0],zero,zero,zero,xmm3[1],zero,zero,zero,xmm3[2],zero,zero,zero,xmm3[3],zero,zero,zero,xmm3[4],zero,zero,zero,xmm3[5],zero,zero,zero,xmm3[6],zero,zero,zero,xmm3[7],zero,zero,zero
    vpslld    $31, %ymm3, %ymm3
    vmovups    24688(%rsp), %ymm4              # 32-byte Reload
    vmaskmovps    %ymm4, %ymm3, 192(%r11,%rax,4)
    vpunpckhbw    %xmm2, %xmm2, %xmm3     # xmm3 = xmm2[8,8,9,9,10,10,11,11,12,12,13,13,14,14,15,15]
    vpmovzxwd    %xmm3, %ymm3            # ymm3 = xmm3[0],zero,xmm3[1],zero,xmm3[2],zero,xmm3[3],zero,xmm3[4],zero,xmm3[5],zero,xmm3[6],zero,xmm3[7],zero
    vpslld    $31, %ymm3, %ymm3
    vmovups    24720(%rsp), %ymm4              # 32-byte Reload
    vmaskmovps    %ymm4, %ymm3, 160(%r11,%rax,4)
    vpmovzxbd    %xmm2, %ymm2            # ymm2 = xmm2[0],zero,zero,zero,xmm2[1],zero,zero,zero,xmm2[2],zero,zero,zero,xmm2[3],zero,zero,zero,xmm2[4],zero,zero,zero,xmm2[5],zero,zero,zero,xmm2[6],zero,zero,zero,xmm2[7],zero,zero,zero
    vpslld    $31, %ymm2, %ymm2
    vmovups    24752(%rsp), %ymm3              # 32-byte Reload
    vmaskmovps    %ymm3, %ymm2, 128(%r11,%rax,4)
    .loc    1 60 39                         # mm.py:60:39
    vmovd    %r8d, %xmm2
    vpinsrb    $1, %r8d, %xmm2, %xmm2
    vpinsrb    $2, %r8d, %xmm2, %xmm2
    vpinsrb    $3, %r8d, %xmm2, %xmm2
    vpinsrb    $4, %r8d, %xmm2, %xmm2
    vpinsrb    $5, %r8d, %xmm2, %xmm2
    vpinsrb    $6, %r8d, %xmm2, %xmm2
    vpinsrb    $7, %r8d, %xmm2, %xmm2
    vpinsrb    $8, %r8d, %xmm2, %xmm2
    vpinsrb    $9, %r8d, %xmm2, %xmm2
    vpinsrb    $10, %r8d, %xmm2, %xmm2
    vpinsrb    $11, %r8d, %xmm2, %xmm2
    vpinsrb    $12, %r8d, %xmm2, %xmm2
    vpinsrb    $13, %r8d, %xmm2, %xmm2
    vpinsrb    $14, %r8d, %xmm2, %xmm2
    vpinsrb    $15, %r8d, %xmm2, %xmm2
    vmovd    %r8d, %xmm3
    vpinsrb    $1, %r8d, %xmm3, %xmm3
    vpinsrb    $2, %r8d, %xmm3, %xmm3
    vpinsrb    $3, %r8d, %xmm3, %xmm3
    vpinsrb    $4, %r8d, %xmm3, %xmm3
    vpinsrb    $5, %r8d, %xmm3, %xmm3
    vpinsrb    $6, %r8d, %xmm3, %xmm3
    vpinsrb    $7, %r8d, %xmm3, %xmm3
    vpinsrb    $8, %r8d, %xmm3, %xmm3
    vpinsrb    $9, %r8d, %xmm3, %xmm3
    vpinsrb    $10, %r8d, %xmm3, %xmm3
    vpinsrb    $11, %r8d, %xmm3, %xmm3
    vpinsrb    $12, %r8d, %xmm3, %xmm3
    vpinsrb    $13, %r8d, %xmm3, %xmm3
    vpinsrb    $14, %r8d, %xmm3, %xmm3
    vpinsrb    $15, %r8d, %xmm3, %xmm3
    vinserti128    $1, %xmm3, %ymm2, %ymm2
    vpand    %ymm0, %ymm2, %ymm2
    .loc    1 59 16                         # mm.py:59:16
    vextracti128    $1, %ymm2, %xmm3
    vpunpckhbw    %xmm3, %xmm3, %xmm4     # xmm4 = xmm3[8,8,9,9,10,10,11,11,12,12,13,13,14,14,15,15]
    vpmovzxwd    %xmm4, %ymm4            # ymm4 = xmm4[0],zero,xmm4[1],zero,xmm4[2],zero,xmm4[3],zero,xmm4[4],zero,xmm4[5],zero,xmm4[6],zero,xmm4[7],zero
    vpslld    $31, %ymm4, %ymm4
    vmovups    24784(%rsp), %ymm5              # 32-byte Reload
    vmaskmovps    %ymm5, %ymm4, 96(%r11,%rax,4)
    vpmovzxbd    %xmm3, %ymm3            # ymm3 = xmm3[0],zero,zero,zero,xmm3[1],zero,zero,zero,xmm3[2],zero,zero,zero,xmm3[3],zero,zero,zero,xmm3[4],zero,zero,zero,xmm3[5],zero,zero,zero,xmm3[6],zero,zero,zero,xmm3[7],zero,zero,zero
    vpslld    $31, %ymm3, %ymm3
    vmovups    24816(%rsp), %ymm4              # 32-byte Reload
    vmaskmovps    %ymm4, %ymm3, 64(%r11,%rax,4)
    vpunpckhbw    %xmm2, %xmm2, %xmm3     # xmm3 = xmm2[8,8,9,9,10,10,11,11,12,12,13,13,14,14,15,15]
    vpmovzxwd    %xmm3, %ymm3            # ymm3 = xmm3[0],zero,xmm3[1],zero,xmm3[2],zero,xmm3[3],zero,xmm3[4],zero,xmm3[5],zero,xmm3[6],zero,xmm3[7],zero
    vpslld    $31, %ymm3, %ymm3
    vmovups    24848(%rsp), %ymm4              # 32-byte Reload
    vmaskmovps    %ymm4, %ymm3, 32(%r11,%rax,4)
    vpmovzxbd    %xmm2, %ymm2            # ymm2 = xmm2[0],zero,zero,zero,xmm2[1],zero,zero,zero,xmm2[2],zero,zero,zero,xmm2[3],zero,zero,zero,xmm2[4],zero,zero,zero,xmm2[5],zero,zero,zero,xmm2[6],zero,zero,zero,xmm2[7],zero,zero,zero
    vpslld    $31, %ymm2, %ymm2
    vmovups    24880(%rsp), %ymm3              # 32-byte Reload
    vmaskmovps    %ymm3, %ymm2, (%r11,%rax,4)
    movl    20420(%rsp), %r8d               # 4-byte Reload
    .loc    1 60 39                         # mm.py:60:39
    vmovd    %r8d, %xmm2
    vpinsrb    $1, %r8d, %xmm2, %xmm2
    vpinsrb    $2, %r8d, %xmm2, %xmm2
    vpinsrb    $3, %r8d, %xmm2, %xmm2
    vpinsrb    $4, %r8d, %xmm2, %xmm2
    vpinsrb    $5, %r8d, %xmm2, %xmm2
    vpinsrb    $6, %r8d, %xmm2, %xmm2
    vpinsrb    $7, %r8d, %xmm2, %xmm2
    vpinsrb    $8, %r8d, %xmm2, %xmm2
    vpinsrb    $9, %r8d, %xmm2, %xmm2
    vpinsrb    $10, %r8d, %xmm2, %xmm2
    vpinsrb    $11, %r8d, %xmm2, %xmm2
    vpinsrb    $12, %r8d, %xmm2, %xmm2
    vpinsrb    $13, %r8d, %xmm2, %xmm2
    vpinsrb    $14, %r8d, %xmm2, %xmm2
    vpinsrb    $15, %r8d, %xmm2, %xmm2
    vmovd    %r8d, %xmm3
    vpinsrb    $1, %r8d, %xmm3, %xmm3
    vpinsrb    $2, %r8d, %xmm3, %xmm3
    vpinsrb    $3, %r8d, %xmm3, %xmm3
    vpinsrb    $4, %r8d, %xmm3, %xmm3
    vpinsrb    $5, %r8d, %xmm3, %xmm3
    vpinsrb    $6, %r8d, %xmm3, %xmm3
    vpinsrb    $7, %r8d, %xmm3, %xmm3
    vpinsrb    $8, %r8d, %xmm3, %xmm3
    vpinsrb    $9, %r8d, %xmm3, %xmm3
    vpinsrb    $10, %r8d, %xmm3, %xmm3
    vpinsrb    $11, %r8d, %xmm3, %xmm3
    vpinsrb    $12, %r8d, %xmm3, %xmm3
    vpinsrb    $13, %r8d, %xmm3, %xmm3
    vpinsrb    $14, %r8d, %xmm3, %xmm3
    vpinsrb    $15, %r8d, %xmm3, %xmm3
    vinserti128    $1, %xmm3, %ymm2, %ymm2
    vpand    %ymm1, %ymm2, %ymm2
    .loc    1 59 16                         # mm.py:59:16
    vextracti128    $1, %ymm2, %xmm3
    vpunpckhbw    %xmm3, %xmm3, %xmm4     # xmm4 = xmm3[8,8,9,9,10,10,11,11,12,12,13,13,14,14,15,15]
    vpmovzxwd    %xmm4, %ymm4            # ymm4 = xmm4[0],zero,xmm4[1],zero,xmm4[2],zero,xmm4[3],zero,xmm4[4],zero,xmm4[5],zero,xmm4[6],zero,xmm4[7],zero
    vpslld    $31, %ymm4, %ymm4
    movq    22472(%rsp), %r11               # 8-byte Reload
    vmovups    24912(%rsp), %ymm5              # 32-byte Reload
    vmaskmovps    %ymm5, %ymm4, 224(%r11,%rax,4)
    vpmovzxbd    %xmm3, %ymm3            # ymm3 = xmm3[0],zero,zero,zero,xmm3[1],zero,zero,zero,xmm3[2],zero,zero,zero,xmm3[3],zero,zero,zero,xmm3[4],zero,zero,zero,xmm3[5],zero,zero,zero,xmm3[6],zero,zero,zero,xmm3[7],zero,zero,zero
    vpslld    $31, %ymm3, %ymm3
    vmovups    24944(%rsp), %ymm4              # 32-byte Reload
    vmaskmovps    %ymm4, %ymm3, 192(%r11,%rax,4)
    vpunpckhbw    %xmm2, %xmm2, %xmm3     # xmm3 = xmm2[8,8,9,9,10,10,11,11,12,12,13,13,14,14,15,15]
    vpmovzxwd    %xmm3, %ymm3            # ymm3 = xmm3[0],zero,xmm3[1],zero,xmm3[2],zero,xmm3[3],zero,xmm3[4],zero,xmm3[5],zero,xmm3[6],zero,xmm3[7],zero
    vpslld    $31, %ymm3, %ymm3
    vmovups    24976(%rsp), %ymm4              # 32-byte Reload
    vmaskmovps    %ymm4, %ymm3, 160(%r11,%rax,4)
    vpmovzxbd    %xmm2, %ymm2            # ymm2 = xmm2[0],zero,zero,zero,xmm2[1],zero,zero,zero,xmm2[2],zero,zero,zero,xmm2[3],zero,zero,zero,xmm2[4],zero,zero,zero,xmm2[5],zero,zero,zero,xmm2[6],zero,zero,zero,xmm2[7],zero,zero,zero
    vpslld    $31, %ymm2, %ymm2
    vmovups    25008(%rsp), %ymm3              # 32-byte Reload
    vmaskmovps    %ymm3, %ymm2, 128(%r11,%rax,4)
    .loc    1 60 39                         # mm.py:60:39
    vmovd    %r8d, %xmm2
    vpinsrb    $1, %r8d, %xmm2, %xmm2
    vpinsrb    $2, %r8d, %xmm2, %xmm2
    vpinsrb    $3, %r8d, %xmm2, %xmm2
    vpinsrb    $4, %r8d, %xmm2, %xmm2
    vpinsrb    $5, %r8d, %xmm2, %xmm2
    vpinsrb    $6, %r8d, %xmm2, %xmm2
    vpinsrb    $7, %r8d, %xmm2, %xmm2
    vpinsrb    $8, %r8d, %xmm2, %xmm2
    vpinsrb    $9, %r8d, %xmm2, %xmm2
    vpinsrb    $10, %r8d, %xmm2, %xmm2
    vpinsrb    $11, %r8d, %xmm2, %xmm2
    vpinsrb    $12, %r8d, %xmm2, %xmm2
    vpinsrb    $13, %r8d, %xmm2, %xmm2
    vpinsrb    $14, %r8d, %xmm2, %xmm2
    vpinsrb    $15, %r8d, %xmm2, %xmm2
    vmovd    %r8d, %xmm3
    vpinsrb    $1, %r8d, %xmm3, %xmm3
    vpinsrb    $2, %r8d, %xmm3, %xmm3
    vpinsrb    $3, %r8d, %xmm3, %xmm3
    vpinsrb    $4, %r8d, %xmm3, %xmm3
    vpinsrb    $5, %r8d, %xmm3, %xmm3
    vpinsrb    $6, %r8d, %xmm3, %xmm3
    vpinsrb    $7, %r8d, %xmm3, %xmm3
    vpinsrb    $8, %r8d, %xmm3, %xmm3
    vpinsrb    $9, %r8d, %xmm3, %xmm3
    vpinsrb    $10, %r8d, %xmm3, %xmm3
    vpinsrb    $11, %r8d, %xmm3, %xmm3
    vpinsrb    $12, %r8d, %xmm3, %xmm3
    vpinsrb    $13, %r8d, %xmm3, %xmm3
    vpinsrb    $14, %r8d, %xmm3, %xmm3
    vpinsrb    $15, %r8d, %xmm3, %xmm3
    vinserti128    $1, %xmm3, %ymm2, %ymm2
    vpand    %ymm0, %ymm2, %ymm2
    .loc    1 59 16                         # mm.py:59:16
    vextracti128    $1, %ymm2, %xmm3
    vpunpckhbw    %xmm3, %xmm3, %xmm4     # xmm4 = xmm3[8,8,9,9,10,10,11,11,12,12,13,13,14,14,15,15]
    vpmovzxwd    %xmm4, %ymm4            # ymm4 = xmm4[0],zero,xmm4[1],zero,xmm4[2],zero,xmm4[3],zero,xmm4[4],zero,xmm4[5],zero,xmm4[6],zero,xmm4[7],zero
    vpslld    $31, %ymm4, %ymm4
    vmovups    25040(%rsp), %ymm5              # 32-byte Reload
    vmaskmovps    %ymm5, %ymm4, 96(%r11,%rax,4)
    vpmovzxbd    %xmm3, %ymm3            # ymm3 = xmm3[0],zero,zero,zero,xmm3[1],zero,zero,zero,xmm3[2],zero,zero,zero,xmm3[3],zero,zero,zero,xmm3[4],zero,zero,zero,xmm3[5],zero,zero,zero,xmm3[6],zero,zero,zero,xmm3[7],zero,zero,zero
    vpslld    $31, %ymm3, %ymm3
    vmovups    25072(%rsp), %ymm4              # 32-byte Reload
    vmaskmovps    %ymm4, %ymm3, 64(%r11,%rax,4)
    vpunpckhbw    %xmm2, %xmm2, %xmm3     # xmm3 = xmm2[8,8,9,9,10,10,11,11,12,12,13,13,14,14,15,15]
    vpmovzxwd    %xmm3, %ymm3            # ymm3 = xmm3[0],zero,xmm3[1],zero,xmm3[2],zero,xmm3[3],zero,xmm3[4],zero,xmm3[5],zero,xmm3[6],zero,xmm3[7],zero
    vpslld    $31, %ymm3, %ymm3
    vmovups    25104(%rsp), %ymm4              # 32-byte Reload
    vmaskmovps    %ymm4, %ymm3, 32(%r11,%rax,4)
    vpmovzxbd    %xmm2, %ymm2            # ymm2 = xmm2[0],zero,zero,zero,xmm2[1],zero,zero,zero,xmm2[2],zero,zero,zero,xmm2[3],zero,zero,zero,xmm2[4],zero,zero,zero,xmm2[5],zero,zero,zero,xmm2[6],zero,zero,zero,xmm2[7],zero,zero,zero
    vpslld    $31, %ymm2, %ymm2
    vmovups    21360(%rsp), %ymm3              # 32-byte Reload
    vmaskmovps    %ymm3, %ymm2, (%r11,%rax,4)
    movl    20416(%rsp), %r8d               # 4-byte Reload
    .loc    1 60 39                         # mm.py:60:39
    vmovd    %r8d, %xmm2
    vpinsrb    $1, %r8d, %xmm2, %xmm2
    vpinsrb    $2, %r8d, %xmm2, %xmm2
    vpinsrb    $3, %r8d, %xmm2, %xmm2
    vpinsrb    $4, %r8d, %xmm2, %xmm2
    vpinsrb    $5, %r8d, %xmm2, %xmm2
    vpinsrb    $6, %r8d, %xmm2, %xmm2
    vpinsrb    $7, %r8d, %xmm2, %xmm2
    vpinsrb    $8, %r8d, %xmm2, %xmm2
    vpinsrb    $9, %r8d, %xmm2, %xmm2
    vpinsrb    $10, %r8d, %xmm2, %xmm2
    vpinsrb    $11, %r8d, %xmm2, %xmm2
    vpinsrb    $12, %r8d, %xmm2, %xmm2
    vpinsrb    $13, %r8d, %xmm2, %xmm2
    vpinsrb    $14, %r8d, %xmm2, %xmm2
    vpinsrb    $15, %r8d, %xmm2, %xmm2
    vmovd    %r8d, %xmm3
    vpinsrb    $1, %r8d, %xmm3, %xmm3
    vpinsrb    $2, %r8d, %xmm3, %xmm3
    vpinsrb    $3, %r8d, %xmm3, %xmm3
    vpinsrb    $4, %r8d, %xmm3, %xmm3
    vpinsrb    $5, %r8d, %xmm3, %xmm3
    vpinsrb    $6, %r8d, %xmm3, %xmm3
    vpinsrb    $7, %r8d, %xmm3, %xmm3
    vpinsrb    $8, %r8d, %xmm3, %xmm3
    vpinsrb    $9, %r8d, %xmm3, %xmm3
    vpinsrb    $10, %r8d, %xmm3, %xmm3
    vpinsrb    $11, %r8d, %xmm3, %xmm3
    vpinsrb    $12, %r8d, %xmm3, %xmm3
    vpinsrb    $13, %r8d, %xmm3, %xmm3
    vpinsrb    $14, %r8d, %xmm3, %xmm3
    vpinsrb    $15, %r8d, %xmm3, %xmm3
    vinserti128    $1, %xmm3, %ymm2, %ymm2
    vpand    %ymm0, %ymm2, %ymm2
    .loc    1 59 16                         # mm.py:59:16
    vpunpckhbw    %xmm2, %xmm2, %xmm3     # xmm3 = xmm2[8,8,9,9,10,10,11,11,12,12,13,13,14,14,15,15]
    vpmovzxwd    %xmm3, %ymm3            # ymm3 = xmm3[0],zero,xmm3[1],zero,xmm3[2],zero,xmm3[3],zero,xmm3[4],zero,xmm3[5],zero,xmm3[6],zero,xmm3[7],zero
    vpslld    $31, %ymm3, %ymm3
    movq    22464(%rsp), %r11               # 8-byte Reload
    vmovups    25136(%rsp), %ymm4              # 32-byte Reload
    vmaskmovps    %ymm4, %ymm3, 32(%r11,%rax,4)
    vpmovzxbd    %xmm2, %ymm3            # ymm3 = xmm2[0],zero,zero,zero,xmm2[1],zero,zero,zero,xmm2[2],zero,zero,zero,xmm2[3],zero,zero,zero,xmm2[4],zero,zero,zero,xmm2[5],zero,zero,zero,xmm2[6],zero,zero,zero,xmm2[7],zero,zero,zero
    vpslld    $31, %ymm3, %ymm3
    vmovups    14304(%rsp), %ymm4              # 32-byte Reload
    vmaskmovps    %ymm4, %ymm3, (%r11,%rax,4)
    vextracti128    $1, %ymm2, %xmm2
    vpmovzxbd    %xmm2, %ymm3            # ymm3 = xmm2[0],zero,zero,zero,xmm2[1],zero,zero,zero,xmm2[2],zero,zero,zero,xmm2[3],zero,zero,zero,xmm2[4],zero,zero,zero,xmm2[5],zero,zero,zero,xmm2[6],zero,zero,zero,xmm2[7],zero,zero,zero
    vpslld    $31, %ymm3, %ymm3
    vmovups    25168(%rsp), %ymm4              # 32-byte Reload
    vmaskmovps    %ymm4, %ymm3, 64(%r11,%rax,4)
    vpunpckhbw    %xmm2, %xmm2, %xmm2     # xmm2 = xmm2[8,8,9,9,10,10,11,11,12,12,13,13,14,14,15,15]
    vpmovzxwd    %xmm2, %ymm2            # ymm2 = xmm2[0],zero,xmm2[1],zero,xmm2[2],zero,xmm2[3],zero,xmm2[4],zero,xmm2[5],zero,xmm2[6],zero,xmm2[7],zero
    vpslld    $31, %ymm2, %ymm2
    vmovups    25200(%rsp), %ymm3              # 32-byte Reload
    vmaskmovps    %ymm3, %ymm2, 96(%r11,%rax,4)
    .loc    1 60 39                         # mm.py:60:39
    vmovd    %r8d, %xmm2
    vpinsrb    $1, %r8d, %xmm2, %xmm2
    vpinsrb    $2, %r8d, %xmm2, %xmm2
    vpinsrb    $3, %r8d, %xmm2, %xmm2
    vpinsrb    $4, %r8d, %xmm2, %xmm2
    vpinsrb    $5, %r8d, %xmm2, %xmm2
    vpinsrb    $6, %r8d, %xmm2, %xmm2
    vpinsrb    $7, %r8d, %xmm2, %xmm2
    vpinsrb    $8, %r8d, %xmm2, %xmm2
    vpinsrb    $9, %r8d, %xmm2, %xmm2
    vpinsrb    $10, %r8d, %xmm2, %xmm2
    vpinsrb    $11, %r8d, %xmm2, %xmm2
    vpinsrb    $12, %r8d, %xmm2, %xmm2
    vpinsrb    $13, %r8d, %xmm2, %xmm2
    vpinsrb    $14, %r8d, %xmm2, %xmm2
    vpinsrb    $15, %r8d, %xmm2, %xmm2
    vmovd    %r8d, %xmm3
    vpinsrb    $1, %r8d, %xmm3, %xmm3
    vpinsrb    $2, %r8d, %xmm3, %xmm3
    vpinsrb    $3, %r8d, %xmm3, %xmm3
    vpinsrb    $4, %r8d, %xmm3, %xmm3
    vpinsrb    $5, %r8d, %xmm3, %xmm3
    vpinsrb    $6, %r8d, %xmm3, %xmm3
    vpinsrb    $7, %r8d, %xmm3, %xmm3
    vpinsrb    $8, %r8d, %xmm3, %xmm3
    vpinsrb    $9, %r8d, %xmm3, %xmm3
    vpinsrb    $10, %r8d, %xmm3, %xmm3
    vpinsrb    $11, %r8d, %xmm3, %xmm3
    vpinsrb    $12, %r8d, %xmm3, %xmm3
    vpinsrb    $13, %r8d, %xmm3, %xmm3
    vpinsrb    $14, %r8d, %xmm3, %xmm3
    vpinsrb    $15, %r8d, %xmm3, %xmm3
    vinserti128    $1, %xmm3, %ymm2, %ymm2
    vpand    %ymm1, %ymm2, %ymm2
    .loc    1 59 16                         # mm.py:59:16
    vpmovzxbd    %xmm2, %ymm3            # ymm3 = xmm2[0],zero,zero,zero,xmm2[1],zero,zero,zero,xmm2[2],zero,zero,zero,xmm2[3],zero,zero,zero,xmm2[4],zero,zero,zero,xmm2[5],zero,zero,zero,xmm2[6],zero,zero,zero,xmm2[7],zero,zero,zero
    vpslld    $31, %ymm3, %ymm3
    vmovups    25232(%rsp), %ymm4              # 32-byte Reload
    vmaskmovps    %ymm4, %ymm3, 128(%r11,%rax,4)
    vpunpckhbw    %xmm2, %xmm2, %xmm3     # xmm3 = xmm2[8,8,9,9,10,10,11,11,12,12,13,13,14,14,15,15]
    vpmovzxwd    %xmm3, %ymm3            # ymm3 = xmm3[0],zero,xmm3[1],zero,xmm3[2],zero,xmm3[3],zero,xmm3[4],zero,xmm3[5],zero,xmm3[6],zero,xmm3[7],zero
    vpslld    $31, %ymm3, %ymm3
    vmovups    25264(%rsp), %ymm4              # 32-byte Reload
    vmaskmovps    %ymm4, %ymm3, 160(%r11,%rax,4)
    vextracti128    $1, %ymm2, %xmm2
    vpmovzxbd    %xmm2, %ymm3            # ymm3 = xmm2[0],zero,zero,zero,xmm2[1],zero,zero,zero,xmm2[2],zero,zero,zero,xmm2[3],zero,zero,zero,xmm2[4],zero,zero,zero,xmm2[5],zero,zero,zero,xmm2[6],zero,zero,zero,xmm2[7],zero,zero,zero
    vpslld    $31, %ymm3, %ymm3
    vmovups    25296(%rsp), %ymm4              # 32-byte Reload
    vmaskmovps    %ymm4, %ymm3, 192(%r11,%rax,4)
    vpunpckhbw    %xmm2, %xmm2, %xmm2     # xmm2 = xmm2[8,8,9,9,10,10,11,11,12,12,13,13,14,14,15,15]
    vpmovzxwd    %xmm2, %ymm2            # ymm2 = xmm2[0],zero,xmm2[1],zero,xmm2[2],zero,xmm2[3],zero,xmm2[4],zero,xmm2[5],zero,xmm2[6],zero,xmm2[7],zero
    vpslld    $31, %ymm2, %ymm2
    vmovups    25328(%rsp), %ymm3              # 32-byte Reload
    vmaskmovps    %ymm3, %ymm2, 224(%r11,%rax,4)
    movl    20412(%rsp), %r8d               # 4-byte Reload
    .loc    1 60 39                         # mm.py:60:39
    vmovd    %r8d, %xmm2
    vpinsrb    $1, %r8d, %xmm2, %xmm2
    vpinsrb    $2, %r8d, %xmm2, %xmm2
    vpinsrb    $3, %r8d, %xmm2, %xmm2
    vpinsrb    $4, %r8d, %xmm2, %xmm2
    vpinsrb    $5, %r8d, %xmm2, %xmm2
    vpinsrb    $6, %r8d, %xmm2, %xmm2
    vpinsrb    $7, %r8d, %xmm2, %xmm2
    vpinsrb    $8, %r8d, %xmm2, %xmm2
    vpinsrb    $9, %r8d, %xmm2, %xmm2
    vpinsrb    $10, %r8d, %xmm2, %xmm2
    vpinsrb    $11, %r8d, %xmm2, %xmm2
    vpinsrb    $12, %r8d, %xmm2, %xmm2
    vpinsrb    $13, %r8d, %xmm2, %xmm2
    vpinsrb    $14, %r8d, %xmm2, %xmm2
    vpinsrb    $15, %r8d, %xmm2, %xmm2
    vmovd    %r8d, %xmm3
    vpinsrb    $1, %r8d, %xmm3, %xmm3
    vpinsrb    $2, %r8d, %xmm3, %xmm3
    vpinsrb    $3, %r8d, %xmm3, %xmm3
    vpinsrb    $4, %r8d, %xmm3, %xmm3
    vpinsrb    $5, %r8d, %xmm3, %xmm3
    vpinsrb    $6, %r8d, %xmm3, %xmm3
    vpinsrb    $7, %r8d, %xmm3, %xmm3
    vpinsrb    $8, %r8d, %xmm3, %xmm3
    vpinsrb    $9, %r8d, %xmm3, %xmm3
    vpinsrb    $10, %r8d, %xmm3, %xmm3
    vpinsrb    $11, %r8d, %xmm3, %xmm3
    vpinsrb    $12, %r8d, %xmm3, %xmm3
    vpinsrb    $13, %r8d, %xmm3, %xmm3
    vpinsrb    $14, %r8d, %xmm3, %xmm3
    vpinsrb    $15, %r8d, %xmm3, %xmm3
    vinserti128    $1, %xmm3, %ymm2, %ymm2
    vpand    %ymm0, %ymm2, %ymm2
    .loc    1 59 16                         # mm.py:59:16
    vpmovzxbd    %xmm2, %ymm3            # ymm3 = xmm2[0],zero,zero,zero,xmm2[1],zero,zero,zero,xmm2[2],zero,zero,zero,xmm2[3],zero,zero,zero,xmm2[4],zero,zero,zero,xmm2[5],zero,zero,zero,xmm2[6],zero,zero,zero,xmm2[7],zero,zero,zero
    vpslld    $31, %ymm3, %ymm3
    movq    22456(%rsp), %r11               # 8-byte Reload
    vmovups    21296(%rsp), %ymm4              # 32-byte Reload
    vmaskmovps    %ymm4, %ymm3, (%r11,%rax,4)
    vpunpckhbw    %xmm2, %xmm2, %xmm3     # xmm3 = xmm2[8,8,9,9,10,10,11,11,12,12,13,13,14,14,15,15]
    vpmovzxwd    %xmm3, %ymm3            # ymm3 = xmm3[0],zero,xmm3[1],zero,xmm3[2],zero,xmm3[3],zero,xmm3[4],zero,xmm3[5],zero,xmm3[6],zero,xmm3[7],zero
    vpslld    $31, %ymm3, %ymm3
    vmovups    19328(%rsp), %ymm4              # 32-byte Reload
    vmaskmovps    %ymm4, %ymm3, 32(%r11,%rax,4)
    vextracti128    $1, %ymm2, %xmm2
    vpmovzxbd    %xmm2, %ymm3            # ymm3 = xmm2[0],zero,zero,zero,xmm2[1],zero,zero,zero,xmm2[2],zero,zero,zero,xmm2[3],zero,zero,zero,xmm2[4],zero,zero,zero,xmm2[5],zero,zero,zero,xmm2[6],zero,zero,zero,xmm2[7],zero,zero,zero
    vpslld    $31, %ymm3, %ymm3
    vmovups    25360(%rsp), %ymm4              # 32-byte Reload
    vmaskmovps    %ymm4, %ymm3, 64(%r11,%rax,4)
    vpunpckhbw    %xmm2, %xmm2, %xmm2     # xmm2 = xmm2[8,8,9,9,10,10,11,11,12,12,13,13,14,14,15,15]
    vpmovzxwd    %xmm2, %ymm2            # ymm2 = xmm2[0],zero,xmm2[1],zero,xmm2[2],zero,xmm2[3],zero,xmm2[4],zero,xmm2[5],zero,xmm2[6],zero,xmm2[7],zero
    vpslld    $31, %ymm2, %ymm2
    vmovups    25392(%rsp), %ymm3              # 32-byte Reload
    vmaskmovps    %ymm3, %ymm2, 96(%r11,%rax,4)
    .loc    1 60 39                         # mm.py:60:39
    vmovd    %r8d, %xmm2
    vpinsrb    $1, %r8d, %xmm2, %xmm2
    vpinsrb    $2, %r8d, %xmm2, %xmm2
    vpinsrb    $3, %r8d, %xmm2, %xmm2
    vpinsrb    $4, %r8d, %xmm2, %xmm2
    vpinsrb    $5, %r8d, %xmm2, %xmm2
    vpinsrb    $6, %r8d, %xmm2, %xmm2
    vpinsrb    $7, %r8d, %xmm2, %xmm2
    vpinsrb    $8, %r8d, %xmm2, %xmm2
    vpinsrb    $9, %r8d, %xmm2, %xmm2
    vpinsrb    $10, %r8d, %xmm2, %xmm2
    vpinsrb    $11, %r8d, %xmm2, %xmm2
    vpinsrb    $12, %r8d, %xmm2, %xmm2
    vpinsrb    $13, %r8d, %xmm2, %xmm2
    vpinsrb    $14, %r8d, %xmm2, %xmm2
    vpinsrb    $15, %r8d, %xmm2, %xmm2
    vmovd    %r8d, %xmm3
    vpinsrb    $1, %r8d, %xmm3, %xmm3
    vpinsrb    $2, %r8d, %xmm3, %xmm3
    vpinsrb    $3, %r8d, %xmm3, %xmm3
    vpinsrb    $4, %r8d, %xmm3, %xmm3
    vpinsrb    $5, %r8d, %xmm3, %xmm3
    vpinsrb    $6, %r8d, %xmm3, %xmm3
    vpinsrb    $7, %r8d, %xmm3, %xmm3
    vpinsrb    $8, %r8d, %xmm3, %xmm3
    vpinsrb    $9, %r8d, %xmm3, %xmm3
    vpinsrb    $10, %r8d, %xmm3, %xmm3
    vpinsrb    $11, %r8d, %xmm3, %xmm3
    vpinsrb    $12, %r8d, %xmm3, %xmm3
    vpinsrb    $13, %r8d, %xmm3, %xmm3
    vpinsrb    $14, %r8d, %xmm3, %xmm3
    vpinsrb    $15, %r8d, %xmm3, %xmm3
    vinserti128    $1, %xmm3, %ymm2, %ymm2
    vpand    %ymm1, %ymm2, %ymm2
    .loc    1 59 16                         # mm.py:59:16
    vpmovzxbd    %xmm2, %ymm3            # ymm3 = xmm2[0],zero,zero,zero,xmm2[1],zero,zero,zero,xmm2[2],zero,zero,zero,xmm2[3],zero,zero,zero,xmm2[4],zero,zero,zero,xmm2[5],zero,zero,zero,xmm2[6],zero,zero,zero,xmm2[7],zero,zero,zero
    vpslld    $31, %ymm3, %ymm3
    vmovups    25424(%rsp), %ymm4              # 32-byte Reload
    vmaskmovps    %ymm4, %ymm3, 128(%r11,%rax,4)
    vpunpckhbw    %xmm2, %xmm2, %xmm3     # xmm3 = xmm2[8,8,9,9,10,10,11,11,12,12,13,13,14,14,15,15]
    vpmovzxwd    %xmm3, %ymm3            # ymm3 = xmm3[0],zero,xmm3[1],zero,xmm3[2],zero,xmm3[3],zero,xmm3[4],zero,xmm3[5],zero,xmm3[6],zero,xmm3[7],zero
    vpslld    $31, %ymm3, %ymm3
    vmovups    25456(%rsp), %ymm4              # 32-byte Reload
    vmaskmovps    %ymm4, %ymm3, 160(%r11,%rax,4)
    vextracti128    $1, %ymm2, %xmm2
    vpmovzxbd    %xmm2, %ymm3            # ymm3 = xmm2[0],zero,zero,zero,xmm2[1],zero,zero,zero,xmm2[2],zero,zero,zero,xmm2[3],zero,zero,zero,xmm2[4],zero,zero,zero,xmm2[5],zero,zero,zero,xmm2[6],zero,zero,zero,xmm2[7],zero,zero,zero
    vpslld    $31, %ymm3, %ymm3
    vmovups    25488(%rsp), %ymm4              # 32-byte Reload
    vmaskmovps    %ymm4, %ymm3, 192(%r11,%rax,4)
    vpunpckhbw    %xmm2, %xmm2, %xmm2     # xmm2 = xmm2[8,8,9,9,10,10,11,11,12,12,13,13,14,14,15,15]
    vpmovzxwd    %xmm2, %ymm2            # ymm2 = xmm2[0],zero,xmm2[1],zero,xmm2[2],zero,xmm2[3],zero,xmm2[4],zero,xmm2[5],zero,xmm2[6],zero,xmm2[7],zero
    vpslld    $31, %ymm2, %ymm2
    vmovups    25520(%rsp), %ymm3              # 32-byte Reload
    vmaskmovps    %ymm3, %ymm2, 224(%r11,%rax,4)
    movl    20408(%rsp), %r8d               # 4-byte Reload
    .loc    1 60 39                         # mm.py:60:39
    vmovd    %r8d, %xmm2
    vpinsrb    $1, %r8d, %xmm2, %xmm2
    vpinsrb    $2, %r8d, %xmm2, %xmm2
    vpinsrb    $3, %r8d, %xmm2, %xmm2
    vpinsrb    $4, %r8d, %xmm2, %xmm2
    vpinsrb    $5, %r8d, %xmm2, %xmm2
    vpinsrb    $6, %r8d, %xmm2, %xmm2
    vpinsrb    $7, %r8d, %xmm2, %xmm2
    vpinsrb    $8, %r8d, %xmm2, %xmm2
    vpinsrb    $9, %r8d, %xmm2, %xmm2
    vpinsrb    $10, %r8d, %xmm2, %xmm2
    vpinsrb    $11, %r8d, %xmm2, %xmm2
    vpinsrb    $12, %r8d, %xmm2, %xmm2
    vpinsrb    $13, %r8d, %xmm2, %xmm2
    vpinsrb    $14, %r8d, %xmm2, %xmm2
    vpinsrb    $15, %r8d, %xmm2, %xmm2
    vmovd    %r8d, %xmm3
    vpinsrb    $1, %r8d, %xmm3, %xmm3
    vpinsrb    $2, %r8d, %xmm3, %xmm3
    vpinsrb    $3, %r8d, %xmm3, %xmm3
    vpinsrb    $4, %r8d, %xmm3, %xmm3
    vpinsrb    $5, %r8d, %xmm3, %xmm3
    vpinsrb    $6, %r8d, %xmm3, %xmm3
    vpinsrb    $7, %r8d, %xmm3, %xmm3
    vpinsrb    $8, %r8d, %xmm3, %xmm3
    vpinsrb    $9, %r8d, %xmm3, %xmm3
    vpinsrb    $10, %r8d, %xmm3, %xmm3
    vpinsrb    $11, %r8d, %xmm3, %xmm3
    vpinsrb    $12, %r8d, %xmm3, %xmm3
    vpinsrb    $13, %r8d, %xmm3, %xmm3
    vpinsrb    $14, %r8d, %xmm3, %xmm3
    vpinsrb    $15, %r8d, %xmm3, %xmm3
    vinserti128    $1, %xmm3, %ymm2, %ymm2
    vpand    %ymm0, %ymm2, %ymm2
    .loc    1 59 16                         # mm.py:59:16
    vpmovzxbd    %xmm2, %ymm3            # ymm3 = xmm2[0],zero,zero,zero,xmm2[1],zero,zero,zero,xmm2[2],zero,zero,zero,xmm2[3],zero,zero,zero,xmm2[4],zero,zero,zero,xmm2[5],zero,zero,zero,xmm2[6],zero,zero,zero,xmm2[7],zero,zero,zero
    vpslld    $31, %ymm3, %ymm3
    movq    22448(%rsp), %r11               # 8-byte Reload
    vmovups    19616(%rsp), %ymm4              # 32-byte Reload
    vmaskmovps    %ymm4, %ymm3, (%r11,%rax,4)
    vpunpckhbw    %xmm2, %xmm2, %xmm3     # xmm3 = xmm2[8,8,9,9,10,10,11,11,12,12,13,13,14,14,15,15]
    vpmovzxwd    %xmm3, %ymm3            # ymm3 = xmm3[0],zero,xmm3[1],zero,xmm3[2],zero,xmm3[3],zero,xmm3[4],zero,xmm3[5],zero,xmm3[6],zero,xmm3[7],zero
    vpslld    $31, %ymm3, %ymm3
    vmovups    25552(%rsp), %ymm4              # 32-byte Reload
    vmaskmovps    %ymm4, %ymm3, 32(%r11,%rax,4)
    vextracti128    $1, %ymm2, %xmm2
    vpmovzxbd    %xmm2, %ymm3            # ymm3 = xmm2[0],zero,zero,zero,xmm2[1],zero,zero,zero,xmm2[2],zero,zero,zero,xmm2[3],zero,zero,zero,xmm2[4],zero,zero,zero,xmm2[5],zero,zero,zero,xmm2[6],zero,zero,zero,xmm2[7],zero,zero,zero
    vpslld    $31, %ymm3, %ymm3
    vmovups    25584(%rsp), %ymm4              # 32-byte Reload
    vmaskmovps    %ymm4, %ymm3, 64(%r11,%rax,4)
    vpunpckhbw    %xmm2, %xmm2, %xmm2     # xmm2 = xmm2[8,8,9,9,10,10,11,11,12,12,13,13,14,14,15,15]
    vpmovzxwd    %xmm2, %ymm2            # ymm2 = xmm2[0],zero,xmm2[1],zero,xmm2[2],zero,xmm2[3],zero,xmm2[4],zero,xmm2[5],zero,xmm2[6],zero,xmm2[7],zero
    vpslld    $31, %ymm2, %ymm2
    vmovups    25616(%rsp), %ymm3              # 32-byte Reload
    vmaskmovps    %ymm3, %ymm2, 96(%r11,%rax,4)
    .loc    1 60 39                         # mm.py:60:39
    vmovd    %r8d, %xmm2
    vpinsrb    $1, %r8d, %xmm2, %xmm2
    vpinsrb    $2, %r8d, %xmm2, %xmm2
    vpinsrb    $3, %r8d, %xmm2, %xmm2
    vpinsrb    $4, %r8d, %xmm2, %xmm2
    vpinsrb    $5, %r8d, %xmm2, %xmm2
    vpinsrb    $6, %r8d, %xmm2, %xmm2
    vpinsrb    $7, %r8d, %xmm2, %xmm2
    vpinsrb    $8, %r8d, %xmm2, %xmm2
    vpinsrb    $9, %r8d, %xmm2, %xmm2
    vpinsrb    $10, %r8d, %xmm2, %xmm2
    vpinsrb    $11, %r8d, %xmm2, %xmm2
    vpinsrb    $12, %r8d, %xmm2, %xmm2
    vpinsrb    $13, %r8d, %xmm2, %xmm2
    vpinsrb    $14, %r8d, %xmm2, %xmm2
    vpinsrb    $15, %r8d, %xmm2, %xmm2
    vmovd    %r8d, %xmm3
    vpinsrb    $1, %r8d, %xmm3, %xmm3
    vpinsrb    $2, %r8d, %xmm3, %xmm3
    vpinsrb    $3, %r8d, %xmm3, %xmm3
    vpinsrb    $4, %r8d, %xmm3, %xmm3
    vpinsrb    $5, %r8d, %xmm3, %xmm3
    vpinsrb    $6, %r8d, %xmm3, %xmm3
    vpinsrb    $7, %r8d, %xmm3, %xmm3
    vpinsrb    $8, %r8d, %xmm3, %xmm3
    vpinsrb    $9, %r8d, %xmm3, %xmm3
    vpinsrb    $10, %r8d, %xmm3, %xmm3
    vpinsrb    $11, %r8d, %xmm3, %xmm3
    vpinsrb    $12, %r8d, %xmm3, %xmm3
    vpinsrb    $13, %r8d, %xmm3, %xmm3
    vpinsrb    $14, %r8d, %xmm3, %xmm3
    vpinsrb    $15, %r8d, %xmm3, %xmm3
    vinserti128    $1, %xmm3, %ymm2, %ymm2
    vpand    %ymm1, %ymm2, %ymm2
    .loc    1 59 16                         # mm.py:59:16
    vpmovzxbd    %xmm2, %ymm3            # ymm3 = xmm2[0],zero,zero,zero,xmm2[1],zero,zero,zero,xmm2[2],zero,zero,zero,xmm2[3],zero,zero,zero,xmm2[4],zero,zero,zero,xmm2[5],zero,zero,zero,xmm2[6],zero,zero,zero,xmm2[7],zero,zero,zero
    vpslld    $31, %ymm3, %ymm3
    vmovups    25648(%rsp), %ymm4              # 32-byte Reload
    vmaskmovps    %ymm4, %ymm3, 128(%r11,%rax,4)
    vpunpckhbw    %xmm2, %xmm2, %xmm3     # xmm3 = xmm2[8,8,9,9,10,10,11,11,12,12,13,13,14,14,15,15]
    vpmovzxwd    %xmm3, %ymm3            # ymm3 = xmm3[0],zero,xmm3[1],zero,xmm3[2],zero,xmm3[3],zero,xmm3[4],zero,xmm3[5],zero,xmm3[6],zero,xmm3[7],zero
    vpslld    $31, %ymm3, %ymm3
    vmovups    25680(%rsp), %ymm4              # 32-byte Reload
    vmaskmovps    %ymm4, %ymm3, 160(%r11,%rax,4)
    vextracti128    $1, %ymm2, %xmm2
    vpmovzxbd    %xmm2, %ymm3            # ymm3 = xmm2[0],zero,zero,zero,xmm2[1],zero,zero,zero,xmm2[2],zero,zero,zero,xmm2[3],zero,zero,zero,xmm2[4],zero,zero,zero,xmm2[5],zero,zero,zero,xmm2[6],zero,zero,zero,xmm2[7],zero,zero,zero
    vpslld    $31, %ymm3, %ymm3
    vmovups    25712(%rsp), %ymm4              # 32-byte Reload
    vmaskmovps    %ymm4, %ymm3, 192(%r11,%rax,4)
    vpunpckhbw    %xmm2, %xmm2, %xmm2     # xmm2 = xmm2[8,8,9,9,10,10,11,11,12,12,13,13,14,14,15,15]
    vpmovzxwd    %xmm2, %ymm2            # ymm2 = xmm2[0],zero,xmm2[1],zero,xmm2[2],zero,xmm2[3],zero,xmm2[4],zero,xmm2[5],zero,xmm2[6],zero,xmm2[7],zero
    vpslld    $31, %ymm2, %ymm2
    vmovups    25744(%rsp), %ymm3              # 32-byte Reload
    vmaskmovps    %ymm3, %ymm2, 224(%r11,%rax,4)
    movl    20404(%rsp), %r8d               # 4-byte Reload
    .loc    1 60 39                         # mm.py:60:39
    vmovd    %r8d, %xmm2
    vpinsrb    $1, %r8d, %xmm2, %xmm2
    vpinsrb    $2, %r8d, %xmm2, %xmm2
    vpinsrb    $3, %r8d, %xmm2, %xmm2
    vpinsrb    $4, %r8d, %xmm2, %xmm2
    vpinsrb    $5, %r8d, %xmm2, %xmm2
    vpinsrb    $6, %r8d, %xmm2, %xmm2
    vpinsrb    $7, %r8d, %xmm2, %xmm2
    vpinsrb    $8, %r8d, %xmm2, %xmm2
    vpinsrb    $9, %r8d, %xmm2, %xmm2
    vpinsrb    $10, %r8d, %xmm2, %xmm2
    vpinsrb    $11, %r8d, %xmm2, %xmm2
    vpinsrb    $12, %r8d, %xmm2, %xmm2
    vpinsrb    $13, %r8d, %xmm2, %xmm2
    vpinsrb    $14, %r8d, %xmm2, %xmm2
    vpinsrb    $15, %r8d, %xmm2, %xmm2
    vmovd    %r8d, %xmm3
    vpinsrb    $1, %r8d, %xmm3, %xmm3
    vpinsrb    $2, %r8d, %xmm3, %xmm3
    vpinsrb    $3, %r8d, %xmm3, %xmm3
    vpinsrb    $4, %r8d, %xmm3, %xmm3
    vpinsrb    $5, %r8d, %xmm3, %xmm3
    vpinsrb    $6, %r8d, %xmm3, %xmm3
    vpinsrb    $7, %r8d, %xmm3, %xmm3
    vpinsrb    $8, %r8d, %xmm3, %xmm3
    vpinsrb    $9, %r8d, %xmm3, %xmm3
    vpinsrb    $10, %r8d, %xmm3, %xmm3
    vpinsrb    $11, %r8d, %xmm3, %xmm3
    vpinsrb    $12, %r8d, %xmm3, %xmm3
    vpinsrb    $13, %r8d, %xmm3, %xmm3
    vpinsrb    $14, %r8d, %xmm3, %xmm3
    vpinsrb    $15, %r8d, %xmm3, %xmm3
    vinserti128    $1, %xmm3, %ymm2, %ymm2
    vpand    %ymm0, %ymm2, %ymm2
    .loc    1 59 16                         # mm.py:59:16
    vpmovzxbd    %xmm2, %ymm3            # ymm3 = xmm2[0],zero,zero,zero,xmm2[1],zero,zero,zero,xmm2[2],zero,zero,zero,xmm2[3],zero,zero,zero,xmm2[4],zero,zero,zero,xmm2[5],zero,zero,zero,xmm2[6],zero,zero,zero,xmm2[7],zero,zero,zero
    vpslld    $31, %ymm3, %ymm3
    movq    22440(%rsp), %r11               # 8-byte Reload
    vmovups    25776(%rsp), %ymm4              # 32-byte Reload
    vmaskmovps    %ymm4, %ymm3, (%r11,%rax,4)
    vpunpckhbw    %xmm2, %xmm2, %xmm3     # xmm3 = xmm2[8,8,9,9,10,10,11,11,12,12,13,13,14,14,15,15]
    vpmovzxwd    %xmm3, %ymm3            # ymm3 = xmm3[0],zero,xmm3[1],zero,xmm3[2],zero,xmm3[3],zero,xmm3[4],zero,xmm3[5],zero,xmm3[6],zero,xmm3[7],zero
    vpslld    $31, %ymm3, %ymm3
    vmovups    20784(%rsp), %ymm4              # 32-byte Reload
    vmaskmovps    %ymm4, %ymm3, 32(%r11,%rax,4)
    vextracti128    $1, %ymm2, %xmm2
    vpmovzxbd    %xmm2, %ymm3            # ymm3 = xmm2[0],zero,zero,zero,xmm2[1],zero,zero,zero,xmm2[2],zero,zero,zero,xmm2[3],zero,zero,zero,xmm2[4],zero,zero,zero,xmm2[5],zero,zero,zero,xmm2[6],zero,zero,zero,xmm2[7],zero,zero,zero
    vpslld    $31, %ymm3, %ymm3
    vmovups    25808(%rsp), %ymm4              # 32-byte Reload
    vmaskmovps    %ymm4, %ymm3, 64(%r11,%rax,4)
    vpunpckhbw    %xmm2, %xmm2, %xmm2     # xmm2 = xmm2[8,8,9,9,10,10,11,11,12,12,13,13,14,14,15,15]
    vpmovzxwd    %xmm2, %ymm2            # ymm2 = xmm2[0],zero,xmm2[1],zero,xmm2[2],zero,xmm2[3],zero,xmm2[4],zero,xmm2[5],zero,xmm2[6],zero,xmm2[7],zero
    vpslld    $31, %ymm2, %ymm2
    vmovups    25840(%rsp), %ymm3              # 32-byte Reload
    vmaskmovps    %ymm3, %ymm2, 96(%r11,%rax,4)
    .loc    1 60 39                         # mm.py:60:39
    vmovd    %r8d, %xmm2
    vpinsrb    $1, %r8d, %xmm2, %xmm2
    vpinsrb    $2, %r8d, %xmm2, %xmm2
    vpinsrb    $3, %r8d, %xmm2, %xmm2
    vpinsrb    $4, %r8d, %xmm2, %xmm2
    vpinsrb    $5, %r8d, %xmm2, %xmm2
    vpinsrb    $6, %r8d, %xmm2, %xmm2
    vpinsrb    $7, %r8d, %xmm2, %xmm2
    vpinsrb    $8, %r8d, %xmm2, %xmm2
    vpinsrb    $9, %r8d, %xmm2, %xmm2
    vpinsrb    $10, %r8d, %xmm2, %xmm2
    vpinsrb    $11, %r8d, %xmm2, %xmm2
    vpinsrb    $12, %r8d, %xmm2, %xmm2
    vpinsrb    $13, %r8d, %xmm2, %xmm2
    vpinsrb    $14, %r8d, %xmm2, %xmm2
    vpinsrb    $15, %r8d, %xmm2, %xmm2
    vmovd    %r8d, %xmm3
    vpinsrb    $1, %r8d, %xmm3, %xmm3
    vpinsrb    $2, %r8d, %xmm3, %xmm3
    vpinsrb    $3, %r8d, %xmm3, %xmm3
    vpinsrb    $4, %r8d, %xmm3, %xmm3
    vpinsrb    $5, %r8d, %xmm3, %xmm3
    vpinsrb    $6, %r8d, %xmm3, %xmm3
    vpinsrb    $7, %r8d, %xmm3, %xmm3
    vpinsrb    $8, %r8d, %xmm3, %xmm3
    vpinsrb    $9, %r8d, %xmm3, %xmm3
    vpinsrb    $10, %r8d, %xmm3, %xmm3
    vpinsrb    $11, %r8d, %xmm3, %xmm3
    vpinsrb    $12, %r8d, %xmm3, %xmm3
    vpinsrb    $13, %r8d, %xmm3, %xmm3
    vpinsrb    $14, %r8d, %xmm3, %xmm3
    vpinsrb    $15, %r8d, %xmm3, %xmm3
    vinserti128    $1, %xmm3, %ymm2, %ymm2
    vpand    %ymm1, %ymm2, %ymm2
    .loc    1 59 16                         # mm.py:59:16
    vpmovzxbd    %xmm2, %ymm3            # ymm3 = xmm2[0],zero,zero,zero,xmm2[1],zero,zero,zero,xmm2[2],zero,zero,zero,xmm2[3],zero,zero,zero,xmm2[4],zero,zero,zero,xmm2[5],zero,zero,zero,xmm2[6],zero,zero,zero,xmm2[7],zero,zero,zero
    vpslld    $31, %ymm3, %ymm3
    vmovups    25872(%rsp), %ymm4              # 32-byte Reload
    vmaskmovps    %ymm4, %ymm3, 128(%r11,%rax,4)
    vpunpckhbw    %xmm2, %xmm2, %xmm3     # xmm3 = xmm2[8,8,9,9,10,10,11,11,12,12,13,13,14,14,15,15]
    vpmovzxwd    %xmm3, %ymm3            # ymm3 = xmm3[0],zero,xmm3[1],zero,xmm3[2],zero,xmm3[3],zero,xmm3[4],zero,xmm3[5],zero,xmm3[6],zero,xmm3[7],zero
    vpslld    $31, %ymm3, %ymm3
    vmovups    25904(%rsp), %ymm4              # 32-byte Reload
    vmaskmovps    %ymm4, %ymm3, 160(%r11,%rax,4)
    vextracti128    $1, %ymm2, %xmm2
    vpmovzxbd    %xmm2, %ymm3            # ymm3 = xmm2[0],zero,zero,zero,xmm2[1],zero,zero,zero,xmm2[2],zero,zero,zero,xmm2[3],zero,zero,zero,xmm2[4],zero,zero,zero,xmm2[5],zero,zero,zero,xmm2[6],zero,zero,zero,xmm2[7],zero,zero,zero
    vpslld    $31, %ymm3, %ymm3
    vmovups    25936(%rsp), %ymm4              # 32-byte Reload
    vmaskmovps    %ymm4, %ymm3, 192(%r11,%rax,4)
    vpunpckhbw    %xmm2, %xmm2, %xmm2     # xmm2 = xmm2[8,8,9,9,10,10,11,11,12,12,13,13,14,14,15,15]
    vpmovzxwd    %xmm2, %ymm2            # ymm2 = xmm2[0],zero,xmm2[1],zero,xmm2[2],zero,xmm2[3],zero,xmm2[4],zero,xmm2[5],zero,xmm2[6],zero,xmm2[7],zero
    vpslld    $31, %ymm2, %ymm2
    vmovups    25968(%rsp), %ymm3              # 32-byte Reload
    vmaskmovps    %ymm3, %ymm2, 224(%r11,%rax,4)
    movl    20400(%rsp), %r8d               # 4-byte Reload
    .loc    1 60 39                         # mm.py:60:39
    vmovd    %r8d, %xmm2
    vpinsrb    $1, %r8d, %xmm2, %xmm2
    vpinsrb    $2, %r8d, %xmm2, %xmm2
    vpinsrb    $3, %r8d, %xmm2, %xmm2
    vpinsrb    $4, %r8d, %xmm2, %xmm2
    vpinsrb    $5, %r8d, %xmm2, %xmm2
    vpinsrb    $6, %r8d, %xmm2, %xmm2
    vpinsrb    $7, %r8d, %xmm2, %xmm2
    vpinsrb    $8, %r8d, %xmm2, %xmm2
    vpinsrb    $9, %r8d, %xmm2, %xmm2
    vpinsrb    $10, %r8d, %xmm2, %xmm2
    vpinsrb    $11, %r8d, %xmm2, %xmm2
    vpinsrb    $12, %r8d, %xmm2, %xmm2
    vpinsrb    $13, %r8d, %xmm2, %xmm2
    vpinsrb    $14, %r8d, %xmm2, %xmm2
    vpinsrb    $15, %r8d, %xmm2, %xmm2
    vmovd    %r8d, %xmm3
    vpinsrb    $1, %r8d, %xmm3, %xmm3
    vpinsrb    $2, %r8d, %xmm3, %xmm3
    vpinsrb    $3, %r8d, %xmm3, %xmm3
    vpinsrb    $4, %r8d, %xmm3, %xmm3
    vpinsrb    $5, %r8d, %xmm3, %xmm3
    vpinsrb    $6, %r8d, %xmm3, %xmm3
    vpinsrb    $7, %r8d, %xmm3, %xmm3
    vpinsrb    $8, %r8d, %xmm3, %xmm3
    vpinsrb    $9, %r8d, %xmm3, %xmm3
    vpinsrb    $10, %r8d, %xmm3, %xmm3
    vpinsrb    $11, %r8d, %xmm3, %xmm3
    vpinsrb    $12, %r8d, %xmm3, %xmm3
    vpinsrb    $13, %r8d, %xmm3, %xmm3
    vpinsrb    $14, %r8d, %xmm3, %xmm3
    vpinsrb    $15, %r8d, %xmm3, %xmm3
    vinserti128    $1, %xmm3, %ymm2, %ymm2
    vpand    %ymm0, %ymm2, %ymm2
    .loc    1 59 16                         # mm.py:59:16
    vpmovzxbd    %xmm2, %ymm3            # ymm3 = xmm2[0],zero,zero,zero,xmm2[1],zero,zero,zero,xmm2[2],zero,zero,zero,xmm2[3],zero,zero,zero,xmm2[4],zero,zero,zero,xmm2[5],zero,zero,zero,xmm2[6],zero,zero,zero,xmm2[7],zero,zero,zero
    vpslld    $31, %ymm3, %ymm3
    movq    22432(%rsp), %r11               # 8-byte Reload
    vmovups    18544(%rsp), %ymm4              # 32-byte Reload
    vmaskmovps    %ymm4, %ymm3, (%r11,%rax,4)
    vpunpckhbw    %xmm2, %xmm2, %xmm3     # xmm3 = xmm2[8,8,9,9,10,10,11,11,12,12,13,13,14,14,15,15]
    vpmovzxwd    %xmm3, %ymm3            # ymm3 = xmm3[0],zero,xmm3[1],zero,xmm3[2],zero,xmm3[3],zero,xmm3[4],zero,xmm3[5],zero,xmm3[6],zero,xmm3[7],zero
    vpslld    $31, %ymm3, %ymm3
    vmovups    26000(%rsp), %ymm4              # 32-byte Reload
    vmaskmovps    %ymm4, %ymm3, 32(%r11,%rax,4)
    vextracti128    $1, %ymm2, %xmm2
    vpmovzxbd    %xmm2, %ymm3            # ymm3 = xmm2[0],zero,zero,zero,xmm2[1],zero,zero,zero,xmm2[2],zero,zero,zero,xmm2[3],zero,zero,zero,xmm2[4],zero,zero,zero,xmm2[5],zero,zero,zero,xmm2[6],zero,zero,zero,xmm2[7],zero,zero,zero
    vpslld    $31, %ymm3, %ymm3
    vmovups    26032(%rsp), %ymm4              # 32-byte Reload
    vmaskmovps    %ymm4, %ymm3, 64(%r11,%rax,4)
    vpunpckhbw    %xmm2, %xmm2, %xmm2     # xmm2 = xmm2[8,8,9,9,10,10,11,11,12,12,13,13,14,14,15,15]
    vpmovzxwd    %xmm2, %ymm2            # ymm2 = xmm2[0],zero,xmm2[1],zero,xmm2[2],zero,xmm2[3],zero,xmm2[4],zero,xmm2[5],zero,xmm2[6],zero,xmm2[7],zero
    vpslld    $31, %ymm2, %ymm2
    vmovups    26064(%rsp), %ymm3              # 32-byte Reload
    vmaskmovps    %ymm3, %ymm2, 96(%r11,%rax,4)
    .loc    1 60 39                         # mm.py:60:39
    vmovd    %r8d, %xmm2
    vpinsrb    $1, %r8d, %xmm2, %xmm2
    vpinsrb    $2, %r8d, %xmm2, %xmm2
    vpinsrb    $3, %r8d, %xmm2, %xmm2
    vpinsrb    $4, %r8d, %xmm2, %xmm2
    vpinsrb    $5, %r8d, %xmm2, %xmm2
    vpinsrb    $6, %r8d, %xmm2, %xmm2
    vpinsrb    $7, %r8d, %xmm2, %xmm2
    vpinsrb    $8, %r8d, %xmm2, %xmm2
    vpinsrb    $9, %r8d, %xmm2, %xmm2
    vpinsrb    $10, %r8d, %xmm2, %xmm2
    vpinsrb    $11, %r8d, %xmm2, %xmm2
    vpinsrb    $12, %r8d, %xmm2, %xmm2
    vpinsrb    $13, %r8d, %xmm2, %xmm2
    vpinsrb    $14, %r8d, %xmm2, %xmm2
    vpinsrb    $15, %r8d, %xmm2, %xmm2
    vmovd    %r8d, %xmm3
    vpinsrb    $1, %r8d, %xmm3, %xmm3
    vpinsrb    $2, %r8d, %xmm3, %xmm3
    vpinsrb    $3, %r8d, %xmm3, %xmm3
    vpinsrb    $4, %r8d, %xmm3, %xmm3
    vpinsrb    $5, %r8d, %xmm3, %xmm3
    vpinsrb    $6, %r8d, %xmm3, %xmm3
    vpinsrb    $7, %r8d, %xmm3, %xmm3
    vpinsrb    $8, %r8d, %xmm3, %xmm3
    vpinsrb    $9, %r8d, %xmm3, %xmm3
    vpinsrb    $10, %r8d, %xmm3, %xmm3
    vpinsrb    $11, %r8d, %xmm3, %xmm3
    vpinsrb    $12, %r8d, %xmm3, %xmm3
    vpinsrb    $13, %r8d, %xmm3, %xmm3
    vpinsrb    $14, %r8d, %xmm3, %xmm3
    vpinsrb    $15, %r8d, %xmm3, %xmm3
    vinserti128    $1, %xmm3, %ymm2, %ymm2
    vpand    %ymm1, %ymm2, %ymm2
    .loc    1 59 16                         # mm.py:59:16
    vpmovzxbd    %xmm2, %ymm3            # ymm3 = xmm2[0],zero,zero,zero,xmm2[1],zero,zero,zero,xmm2[2],zero,zero,zero,xmm2[3],zero,zero,zero,xmm2[4],zero,zero,zero,xmm2[5],zero,zero,zero,xmm2[6],zero,zero,zero,xmm2[7],zero,zero,zero
    vpslld    $31, %ymm3, %ymm3
    vmovups    26096(%rsp), %ymm4              # 32-byte Reload
    vmaskmovps    %ymm4, %ymm3, 128(%r11,%rax,4)
    vpunpckhbw    %xmm2, %xmm2, %xmm3     # xmm3 = xmm2[8,8,9,9,10,10,11,11,12,12,13,13,14,14,15,15]
    vpmovzxwd    %xmm3, %ymm3            # ymm3 = xmm3[0],zero,xmm3[1],zero,xmm3[2],zero,xmm3[3],zero,xmm3[4],zero,xmm3[5],zero,xmm3[6],zero,xmm3[7],zero
    vpslld    $31, %ymm3, %ymm3
    vmovups    26128(%rsp), %ymm4              # 32-byte Reload
    vmaskmovps    %ymm4, %ymm3, 160(%r11,%rax,4)
    vextracti128    $1, %ymm2, %xmm2
    vpmovzxbd    %xmm2, %ymm3            # ymm3 = xmm2[0],zero,zero,zero,xmm2[1],zero,zero,zero,xmm2[2],zero,zero,zero,xmm2[3],zero,zero,zero,xmm2[4],zero,zero,zero,xmm2[5],zero,zero,zero,xmm2[6],zero,zero,zero,xmm2[7],zero,zero,zero
    vpslld    $31, %ymm3, %ymm3
    vmovups    26160(%rsp), %ymm4              # 32-byte Reload
    vmaskmovps    %ymm4, %ymm3, 192(%r11,%rax,4)
    vpunpckhbw    %xmm2, %xmm2, %xmm2     # xmm2 = xmm2[8,8,9,9,10,10,11,11,12,12,13,13,14,14,15,15]
    vpmovzxwd    %xmm2, %ymm2            # ymm2 = xmm2[0],zero,xmm2[1],zero,xmm2[2],zero,xmm2[3],zero,xmm2[4],zero,xmm2[5],zero,xmm2[6],zero,xmm2[7],zero
    vpslld    $31, %ymm2, %ymm2
    vmovups    26192(%rsp), %ymm3              # 32-byte Reload
    vmaskmovps    %ymm3, %ymm2, 224(%r11,%rax,4)
    movl    20396(%rsp), %r8d               # 4-byte Reload
    .loc    1 60 39                         # mm.py:60:39
    vmovd    %r8d, %xmm2
    vpinsrb    $1, %r8d, %xmm2, %xmm2
    vpinsrb    $2, %r8d, %xmm2, %xmm2
    vpinsrb    $3, %r8d, %xmm2, %xmm2
    vpinsrb    $4, %r8d, %xmm2, %xmm2
    vpinsrb    $5, %r8d, %xmm2, %xmm2
    vpinsrb    $6, %r8d, %xmm2, %xmm2
    vpinsrb    $7, %r8d, %xmm2, %xmm2
    vpinsrb    $8, %r8d, %xmm2, %xmm2
    vpinsrb    $9, %r8d, %xmm2, %xmm2
    vpinsrb    $10, %r8d, %xmm2, %xmm2
    vpinsrb    $11, %r8d, %xmm2, %xmm2
    vpinsrb    $12, %r8d, %xmm2, %xmm2
    vpinsrb    $13, %r8d, %xmm2, %xmm2
    vpinsrb    $14, %r8d, %xmm2, %xmm2
    vpinsrb    $15, %r8d, %xmm2, %xmm2
    vmovd    %r8d, %xmm3
    vpinsrb    $1, %r8d, %xmm3, %xmm3
    vpinsrb    $2, %r8d, %xmm3, %xmm3
    vpinsrb    $3, %r8d, %xmm3, %xmm3
    vpinsrb    $4, %r8d, %xmm3, %xmm3
    vpinsrb    $5, %r8d, %xmm3, %xmm3
    vpinsrb    $6, %r8d, %xmm3, %xmm3
    vpinsrb    $7, %r8d, %xmm3, %xmm3
    vpinsrb    $8, %r8d, %xmm3, %xmm3
    vpinsrb    $9, %r8d, %xmm3, %xmm3
    vpinsrb    $10, %r8d, %xmm3, %xmm3
    vpinsrb    $11, %r8d, %xmm3, %xmm3
    vpinsrb    $12, %r8d, %xmm3, %xmm3
    vpinsrb    $13, %r8d, %xmm3, %xmm3
    vpinsrb    $14, %r8d, %xmm3, %xmm3
    vpinsrb    $15, %r8d, %xmm3, %xmm3
    vinserti128    $1, %xmm3, %ymm2, %ymm2
    vpand    %ymm0, %ymm2, %ymm2
    .loc    1 59 16                         # mm.py:59:16
    vpmovzxbd    %xmm2, %ymm3            # ymm3 = xmm2[0],zero,zero,zero,xmm2[1],zero,zero,zero,xmm2[2],zero,zero,zero,xmm2[3],zero,zero,zero,xmm2[4],zero,zero,zero,xmm2[5],zero,zero,zero,xmm2[6],zero,zero,zero,xmm2[7],zero,zero,zero
    vpslld    $31, %ymm3, %ymm3
    movq    22424(%rsp), %r11               # 8-byte Reload
    vmovups    26224(%rsp), %ymm4              # 32-byte Reload
    vmaskmovps    %ymm4, %ymm3, (%r11,%rax,4)
    vpunpckhbw    %xmm2, %xmm2, %xmm3     # xmm3 = xmm2[8,8,9,9,10,10,11,11,12,12,13,13,14,14,15,15]
    vpmovzxwd    %xmm3, %ymm3            # ymm3 = xmm3[0],zero,xmm3[1],zero,xmm3[2],zero,xmm3[3],zero,xmm3[4],zero,xmm3[5],zero,xmm3[6],zero,xmm3[7],zero
    vpslld    $31, %ymm3, %ymm3
    vmovups    26256(%rsp), %ymm4              # 32-byte Reload
    vmaskmovps    %ymm4, %ymm3, 32(%r11,%rax,4)
    vextracti128    $1, %ymm2, %xmm2
    vpmovzxbd    %xmm2, %ymm3            # ymm3 = xmm2[0],zero,zero,zero,xmm2[1],zero,zero,zero,xmm2[2],zero,zero,zero,xmm2[3],zero,zero,zero,xmm2[4],zero,zero,zero,xmm2[5],zero,zero,zero,xmm2[6],zero,zero,zero,xmm2[7],zero,zero,zero
    vpslld    $31, %ymm3, %ymm3
    vmovups    26288(%rsp), %ymm4              # 32-byte Reload
    vmaskmovps    %ymm4, %ymm3, 64(%r11,%rax,4)
    vpunpckhbw    %xmm2, %xmm2, %xmm2     # xmm2 = xmm2[8,8,9,9,10,10,11,11,12,12,13,13,14,14,15,15]
    vpmovzxwd    %xmm2, %ymm2            # ymm2 = xmm2[0],zero,xmm2[1],zero,xmm2[2],zero,xmm2[3],zero,xmm2[4],zero,xmm2[5],zero,xmm2[6],zero,xmm2[7],zero
    vpslld    $31, %ymm2, %ymm2
    vmovups    26320(%rsp), %ymm3              # 32-byte Reload
    vmaskmovps    %ymm3, %ymm2, 96(%r11,%rax,4)
    .loc    1 60 39                         # mm.py:60:39
    vmovd    %r8d, %xmm2
    vpinsrb    $1, %r8d, %xmm2, %xmm2
    vpinsrb    $2, %r8d, %xmm2, %xmm2
    vpinsrb    $3, %r8d, %xmm2, %xmm2
    vpinsrb    $4, %r8d, %xmm2, %xmm2
    vpinsrb    $5, %r8d, %xmm2, %xmm2
    vpinsrb    $6, %r8d, %xmm2, %xmm2
    vpinsrb    $7, %r8d, %xmm2, %xmm2
    vpinsrb    $8, %r8d, %xmm2, %xmm2
    vpinsrb    $9, %r8d, %xmm2, %xmm2
    vpinsrb    $10, %r8d, %xmm2, %xmm2
    vpinsrb    $11, %r8d, %xmm2, %xmm2
    vpinsrb    $12, %r8d, %xmm2, %xmm2
    vpinsrb    $13, %r8d, %xmm2, %xmm2
    vpinsrb    $14, %r8d, %xmm2, %xmm2
    vpinsrb    $15, %r8d, %xmm2, %xmm2
    vmovd    %r8d, %xmm3
    vpinsrb    $1, %r8d, %xmm3, %xmm3
    vpinsrb    $2, %r8d, %xmm3, %xmm3
    vpinsrb    $3, %r8d, %xmm3, %xmm3
    vpinsrb    $4, %r8d, %xmm3, %xmm3
    vpinsrb    $5, %r8d, %xmm3, %xmm3
    vpinsrb    $6, %r8d, %xmm3, %xmm3
    vpinsrb    $7, %r8d, %xmm3, %xmm3
    vpinsrb    $8, %r8d, %xmm3, %xmm3
    vpinsrb    $9, %r8d, %xmm3, %xmm3
    vpinsrb    $10, %r8d, %xmm3, %xmm3
    vpinsrb    $11, %r8d, %xmm3, %xmm3
    vpinsrb    $12, %r8d, %xmm3, %xmm3
    vpinsrb    $13, %r8d, %xmm3, %xmm3
    vpinsrb    $14, %r8d, %xmm3, %xmm3
    vpinsrb    $15, %r8d, %xmm3, %xmm3
    vinserti128    $1, %xmm3, %ymm2, %ymm2
    vpand    %ymm1, %ymm2, %ymm2
    .loc    1 59 16                         # mm.py:59:16
    vpmovzxbd    %xmm2, %ymm3            # ymm3 = xmm2[0],zero,zero,zero,xmm2[1],zero,zero,zero,xmm2[2],zero,zero,zero,xmm2[3],zero,zero,zero,xmm2[4],zero,zero,zero,xmm2[5],zero,zero,zero,xmm2[6],zero,zero,zero,xmm2[7],zero,zero,zero
    vpslld    $31, %ymm3, %ymm3
    vmovups    26352(%rsp), %ymm4              # 32-byte Reload
    vmaskmovps    %ymm4, %ymm3, 128(%r11,%rax,4)
    vpunpckhbw    %xmm2, %xmm2, %xmm3     # xmm3 = xmm2[8,8,9,9,10,10,11,11,12,12,13,13,14,14,15,15]
    vpmovzxwd    %xmm3, %ymm3            # ymm3 = xmm3[0],zero,xmm3[1],zero,xmm3[2],zero,xmm3[3],zero,xmm3[4],zero,xmm3[5],zero,xmm3[6],zero,xmm3[7],zero
    vpslld    $31, %ymm3, %ymm3
    vmovups    26384(%rsp), %ymm4              # 32-byte Reload
    vmaskmovps    %ymm4, %ymm3, 160(%r11,%rax,4)
    vextracti128    $1, %ymm2, %xmm2
    vpmovzxbd    %xmm2, %ymm3            # ymm3 = xmm2[0],zero,zero,zero,xmm2[1],zero,zero,zero,xmm2[2],zero,zero,zero,xmm2[3],zero,zero,zero,xmm2[4],zero,zero,zero,xmm2[5],zero,zero,zero,xmm2[6],zero,zero,zero,xmm2[7],zero,zero,zero
    vpslld    $31, %ymm3, %ymm3
    vmovups    26416(%rsp), %ymm4              # 32-byte Reload
    vmaskmovps    %ymm4, %ymm3, 192(%r11,%rax,4)
    vpunpckhbw    %xmm2, %xmm2, %xmm2     # xmm2 = xmm2[8,8,9,9,10,10,11,11,12,12,13,13,14,14,15,15]
    vpmovzxwd    %xmm2, %ymm2            # ymm2 = xmm2[0],zero,xmm2[1],zero,xmm2[2],zero,xmm2[3],zero,xmm2[4],zero,xmm2[5],zero,xmm2[6],zero,xmm2[7],zero
    vpslld    $31, %ymm2, %ymm2
    vmovups    26448(%rsp), %ymm3              # 32-byte Reload
    vmaskmovps    %ymm3, %ymm2, 224(%r11,%rax,4)
    movl    20392(%rsp), %r8d               # 4-byte Reload
    .loc    1 60 39                         # mm.py:60:39
    vmovd    %r8d, %xmm2
    vpinsrb    $1, %r8d, %xmm2, %xmm2
    vpinsrb    $2, %r8d, %xmm2, %xmm2
    vpinsrb    $3, %r8d, %xmm2, %xmm2
    vpinsrb    $4, %r8d, %xmm2, %xmm2
    vpinsrb    $5, %r8d, %xmm2, %xmm2
    vpinsrb    $6, %r8d, %xmm2, %xmm2
    vpinsrb    $7, %r8d, %xmm2, %xmm2
    vpinsrb    $8, %r8d, %xmm2, %xmm2
    vpinsrb    $9, %r8d, %xmm2, %xmm2
    vpinsrb    $10, %r8d, %xmm2, %xmm2
    vpinsrb    $11, %r8d, %xmm2, %xmm2
    vpinsrb    $12, %r8d, %xmm2, %xmm2
    vpinsrb    $13, %r8d, %xmm2, %xmm2
    vpinsrb    $14, %r8d, %xmm2, %xmm2
    vpinsrb    $15, %r8d, %xmm2, %xmm2
    vmovd    %r8d, %xmm3
    vpinsrb    $1, %r8d, %xmm3, %xmm3
    vpinsrb    $2, %r8d, %xmm3, %xmm3
    vpinsrb    $3, %r8d, %xmm3, %xmm3
    vpinsrb    $4, %r8d, %xmm3, %xmm3
    vpinsrb    $5, %r8d, %xmm3, %xmm3
    vpinsrb    $6, %r8d, %xmm3, %xmm3
    vpinsrb    $7, %r8d, %xmm3, %xmm3
    vpinsrb    $8, %r8d, %xmm3, %xmm3
    vpinsrb    $9, %r8d, %xmm3, %xmm3
    vpinsrb    $10, %r8d, %xmm3, %xmm3
    vpinsrb    $11, %r8d, %xmm3, %xmm3
    vpinsrb    $12, %r8d, %xmm3, %xmm3
    vpinsrb    $13, %r8d, %xmm3, %xmm3
    vpinsrb    $14, %r8d, %xmm3, %xmm3
    vpinsrb    $15, %r8d, %xmm3, %xmm3
    vinserti128    $1, %xmm3, %ymm2, %ymm2
    vpand    %ymm0, %ymm2, %ymm2
    .loc    1 59 16                         # mm.py:59:16
    vpmovzxbd    %xmm2, %ymm3            # ymm3 = xmm2[0],zero,zero,zero,xmm2[1],zero,zero,zero,xmm2[2],zero,zero,zero,xmm2[3],zero,zero,zero,xmm2[4],zero,zero,zero,xmm2[5],zero,zero,zero,xmm2[6],zero,zero,zero,xmm2[7],zero,zero,zero
    vpslld    $31, %ymm3, %ymm3
    movq    22416(%rsp), %r11               # 8-byte Reload
    vmovups    26480(%rsp), %ymm4              # 32-byte Reload
    vmaskmovps    %ymm4, %ymm3, (%r11,%rax,4)
    vpunpckhbw    %xmm2, %xmm2, %xmm3     # xmm3 = xmm2[8,8,9,9,10,10,11,11,12,12,13,13,14,14,15,15]
    vpmovzxwd    %xmm3, %ymm3            # ymm3 = xmm3[0],zero,xmm3[1],zero,xmm3[2],zero,xmm3[3],zero,xmm3[4],zero,xmm3[5],zero,xmm3[6],zero,xmm3[7],zero
    vpslld    $31, %ymm3, %ymm3
    vmovups    26512(%rsp), %ymm4              # 32-byte Reload
    vmaskmovps    %ymm4, %ymm3, 32(%r11,%rax,4)
    vextracti128    $1, %ymm2, %xmm2
    vpmovzxbd    %xmm2, %ymm3            # ymm3 = xmm2[0],zero,zero,zero,xmm2[1],zero,zero,zero,xmm2[2],zero,zero,zero,xmm2[3],zero,zero,zero,xmm2[4],zero,zero,zero,xmm2[5],zero,zero,zero,xmm2[6],zero,zero,zero,xmm2[7],zero,zero,zero
    vpslld    $31, %ymm3, %ymm3
    vmovups    26544(%rsp), %ymm4              # 32-byte Reload
    vmaskmovps    %ymm4, %ymm3, 64(%r11,%rax,4)
    vpunpckhbw    %xmm2, %xmm2, %xmm2     # xmm2 = xmm2[8,8,9,9,10,10,11,11,12,12,13,13,14,14,15,15]
    vpmovzxwd    %xmm2, %ymm2            # ymm2 = xmm2[0],zero,xmm2[1],zero,xmm2[2],zero,xmm2[3],zero,xmm2[4],zero,xmm2[5],zero,xmm2[6],zero,xmm2[7],zero
    vpslld    $31, %ymm2, %ymm2
    vmovups    26576(%rsp), %ymm3              # 32-byte Reload
    vmaskmovps    %ymm3, %ymm2, 96(%r11,%rax,4)
    .loc    1 60 39                         # mm.py:60:39
    vmovd    %r8d, %xmm2
    vpinsrb    $1, %r8d, %xmm2, %xmm2
    vpinsrb    $2, %r8d, %xmm2, %xmm2
    vpinsrb    $3, %r8d, %xmm2, %xmm2
    vpinsrb    $4, %r8d, %xmm2, %xmm2
    vpinsrb    $5, %r8d, %xmm2, %xmm2
    vpinsrb    $6, %r8d, %xmm2, %xmm2
    vpinsrb    $7, %r8d, %xmm2, %xmm2
    vpinsrb    $8, %r8d, %xmm2, %xmm2
    vpinsrb    $9, %r8d, %xmm2, %xmm2
    vpinsrb    $10, %r8d, %xmm2, %xmm2
    vpinsrb    $11, %r8d, %xmm2, %xmm2
    vpinsrb    $12, %r8d, %xmm2, %xmm2
    vpinsrb    $13, %r8d, %xmm2, %xmm2
    vpinsrb    $14, %r8d, %xmm2, %xmm2
    vpinsrb    $15, %r8d, %xmm2, %xmm2
    vmovd    %r8d, %xmm3
    vpinsrb    $1, %r8d, %xmm3, %xmm3
    vpinsrb    $2, %r8d, %xmm3, %xmm3
    vpinsrb    $3, %r8d, %xmm3, %xmm3
    vpinsrb    $4, %r8d, %xmm3, %xmm3
    vpinsrb    $5, %r8d, %xmm3, %xmm3
    vpinsrb    $6, %r8d, %xmm3, %xmm3
    vpinsrb    $7, %r8d, %xmm3, %xmm3
    vpinsrb    $8, %r8d, %xmm3, %xmm3
    vpinsrb    $9, %r8d, %xmm3, %xmm3
    vpinsrb    $10, %r8d, %xmm3, %xmm3
    vpinsrb    $11, %r8d, %xmm3, %xmm3
    vpinsrb    $12, %r8d, %xmm3, %xmm3
    vpinsrb    $13, %r8d, %xmm3, %xmm3
    vpinsrb    $14, %r8d, %xmm3, %xmm3
    vpinsrb    $15, %r8d, %xmm3, %xmm3
    vinserti128    $1, %xmm3, %ymm2, %ymm2
    vpand    %ymm1, %ymm2, %ymm2
    .loc    1 59 16                         # mm.py:59:16
    vpmovzxbd    %xmm2, %ymm3            # ymm3 = xmm2[0],zero,zero,zero,xmm2[1],zero,zero,zero,xmm2[2],zero,zero,zero,xmm2[3],zero,zero,zero,xmm2[4],zero,zero,zero,xmm2[5],zero,zero,zero,xmm2[6],zero,zero,zero,xmm2[7],zero,zero,zero
    vpslld    $31, %ymm3, %ymm3
    vmovups    26608(%rsp), %ymm4              # 32-byte Reload
    vmaskmovps    %ymm4, %ymm3, 128(%r11,%rax,4)
    vpunpckhbw    %xmm2, %xmm2, %xmm3     # xmm3 = xmm2[8,8,9,9,10,10,11,11,12,12,13,13,14,14,15,15]
    vpmovzxwd    %xmm3, %ymm3            # ymm3 = xmm3[0],zero,xmm3[1],zero,xmm3[2],zero,xmm3[3],zero,xmm3[4],zero,xmm3[5],zero,xmm3[6],zero,xmm3[7],zero
    vpslld    $31, %ymm3, %ymm3
    vmovups    26640(%rsp), %ymm4              # 32-byte Reload
    vmaskmovps    %ymm4, %ymm3, 160(%r11,%rax,4)
    vextracti128    $1, %ymm2, %xmm2
    vpmovzxbd    %xmm2, %ymm3            # ymm3 = xmm2[0],zero,zero,zero,xmm2[1],zero,zero,zero,xmm2[2],zero,zero,zero,xmm2[3],zero,zero,zero,xmm2[4],zero,zero,zero,xmm2[5],zero,zero,zero,xmm2[6],zero,zero,zero,xmm2[7],zero,zero,zero
    vpslld    $31, %ymm3, %ymm3
    vmovups    26672(%rsp), %ymm4              # 32-byte Reload
    vmaskmovps    %ymm4, %ymm3, 192(%r11,%rax,4)
    vpunpckhbw    %xmm2, %xmm2, %xmm2     # xmm2 = xmm2[8,8,9,9,10,10,11,11,12,12,13,13,14,14,15,15]
    vpmovzxwd    %xmm2, %ymm2            # ymm2 = xmm2[0],zero,xmm2[1],zero,xmm2[2],zero,xmm2[3],zero,xmm2[4],zero,xmm2[5],zero,xmm2[6],zero,xmm2[7],zero
    vpslld    $31, %ymm2, %ymm2
    vmovups    16256(%rsp), %ymm3              # 32-byte Reload
    vmaskmovps    %ymm3, %ymm2, 224(%r11,%rax,4)
    movl    20388(%rsp), %r8d               # 4-byte Reload
    .loc    1 60 39                         # mm.py:60:39
    vmovd    %r8d, %xmm2
    vpinsrb    $1, %r8d, %xmm2, %xmm2
    vpinsrb    $2, %r8d, %xmm2, %xmm2
    vpinsrb    $3, %r8d, %xmm2, %xmm2
    vpinsrb    $4, %r8d, %xmm2, %xmm2
    vpinsrb    $5, %r8d, %xmm2, %xmm2
    vpinsrb    $6, %r8d, %xmm2, %xmm2
    vpinsrb    $7, %r8d, %xmm2, %xmm2
    vpinsrb    $8, %r8d, %xmm2, %xmm2
    vpinsrb    $9, %r8d, %xmm2, %xmm2
    vpinsrb    $10, %r8d, %xmm2, %xmm2
    vpinsrb    $11, %r8d, %xmm2, %xmm2
    vpinsrb    $12, %r8d, %xmm2, %xmm2
    vpinsrb    $13, %r8d, %xmm2, %xmm2
    vpinsrb    $14, %r8d, %xmm2, %xmm2
    vpinsrb    $15, %r8d, %xmm2, %xmm2
    vmovd    %r8d, %xmm3
    vpinsrb    $1, %r8d, %xmm3, %xmm3
    vpinsrb    $2, %r8d, %xmm3, %xmm3
    vpinsrb    $3, %r8d, %xmm3, %xmm3
    vpinsrb    $4, %r8d, %xmm3, %xmm3
    vpinsrb    $5, %r8d, %xmm3, %xmm3
    vpinsrb    $6, %r8d, %xmm3, %xmm3
    vpinsrb    $7, %r8d, %xmm3, %xmm3
    vpinsrb    $8, %r8d, %xmm3, %xmm3
    vpinsrb    $9, %r8d, %xmm3, %xmm3
    vpinsrb    $10, %r8d, %xmm3, %xmm3
    vpinsrb    $11, %r8d, %xmm3, %xmm3
    vpinsrb    $12, %r8d, %xmm3, %xmm3
    vpinsrb    $13, %r8d, %xmm3, %xmm3
    vpinsrb    $14, %r8d, %xmm3, %xmm3
    vpinsrb    $15, %r8d, %xmm3, %xmm3
    vinserti128    $1, %xmm3, %ymm2, %ymm2
    vpand    %ymm0, %ymm2, %ymm2
    .loc    1 59 16                         # mm.py:59:16
    vpmovzxbd    %xmm2, %ymm3            # ymm3 = xmm2[0],zero,zero,zero,xmm2[1],zero,zero,zero,xmm2[2],zero,zero,zero,xmm2[3],zero,zero,zero,xmm2[4],zero,zero,zero,xmm2[5],zero,zero,zero,xmm2[6],zero,zero,zero,xmm2[7],zero,zero,zero
    vpslld    $31, %ymm3, %ymm3
    movq    22408(%rsp), %r11               # 8-byte Reload
    vmovups    26704(%rsp), %ymm4              # 32-byte Reload
    vmaskmovps    %ymm4, %ymm3, (%r11,%rax,4)
    vpunpckhbw    %xmm2, %xmm2, %xmm3     # xmm3 = xmm2[8,8,9,9,10,10,11,11,12,12,13,13,14,14,15,15]
    vpmovzxwd    %xmm3, %ymm3            # ymm3 = xmm3[0],zero,xmm3[1],zero,xmm3[2],zero,xmm3[3],zero,xmm3[4],zero,xmm3[5],zero,xmm3[6],zero,xmm3[7],zero
    vpslld    $31, %ymm3, %ymm3
    vmovups    26736(%rsp), %ymm4              # 32-byte Reload
    vmaskmovps    %ymm4, %ymm3, 32(%r11,%rax,4)
    vextracti128    $1, %ymm2, %xmm2
    vpmovzxbd    %xmm2, %ymm3            # ymm3 = xmm2[0],zero,zero,zero,xmm2[1],zero,zero,zero,xmm2[2],zero,zero,zero,xmm2[3],zero,zero,zero,xmm2[4],zero,zero,zero,xmm2[5],zero,zero,zero,xmm2[6],zero,zero,zero,xmm2[7],zero,zero,zero
    vpslld    $31, %ymm3, %ymm3
    vmovups    26768(%rsp), %ymm4              # 32-byte Reload
    vmaskmovps    %ymm4, %ymm3, 64(%r11,%rax,4)
    vpunpckhbw    %xmm2, %xmm2, %xmm2     # xmm2 = xmm2[8,8,9,9,10,10,11,11,12,12,13,13,14,14,15,15]
    vpmovzxwd    %xmm2, %ymm2            # ymm2 = xmm2[0],zero,xmm2[1],zero,xmm2[2],zero,xmm2[3],zero,xmm2[4],zero,xmm2[5],zero,xmm2[6],zero,xmm2[7],zero
    vpslld    $31, %ymm2, %ymm2
    vmovups    26800(%rsp), %ymm3              # 32-byte Reload
    vmaskmovps    %ymm3, %ymm2, 96(%r11,%rax,4)
    .loc    1 60 39                         # mm.py:60:39
    vmovd    %r8d, %xmm2
    vpinsrb    $1, %r8d, %xmm2, %xmm2
    vpinsrb    $2, %r8d, %xmm2, %xmm2
    vpinsrb    $3, %r8d, %xmm2, %xmm2
    vpinsrb    $4, %r8d, %xmm2, %xmm2
    vpinsrb    $5, %r8d, %xmm2, %xmm2
    vpinsrb    $6, %r8d, %xmm2, %xmm2
    vpinsrb    $7, %r8d, %xmm2, %xmm2
    vpinsrb    $8, %r8d, %xmm2, %xmm2
    vpinsrb    $9, %r8d, %xmm2, %xmm2
    vpinsrb    $10, %r8d, %xmm2, %xmm2
    vpinsrb    $11, %r8d, %xmm2, %xmm2
    vpinsrb    $12, %r8d, %xmm2, %xmm2
    vpinsrb    $13, %r8d, %xmm2, %xmm2
    vpinsrb    $14, %r8d, %xmm2, %xmm2
    vpinsrb    $15, %r8d, %xmm2, %xmm2
    vmovd    %r8d, %xmm3
    vpinsrb    $1, %r8d, %xmm3, %xmm3
    vpinsrb    $2, %r8d, %xmm3, %xmm3
    vpinsrb    $3, %r8d, %xmm3, %xmm3
    vpinsrb    $4, %r8d, %xmm3, %xmm3
    vpinsrb    $5, %r8d, %xmm3, %xmm3
    vpinsrb    $6, %r8d, %xmm3, %xmm3
    vpinsrb    $7, %r8d, %xmm3, %xmm3
    vpinsrb    $8, %r8d, %xmm3, %xmm3
    vpinsrb    $9, %r8d, %xmm3, %xmm3
    vpinsrb    $10, %r8d, %xmm3, %xmm3
    vpinsrb    $11, %r8d, %xmm3, %xmm3
    vpinsrb    $12, %r8d, %xmm3, %xmm3
    vpinsrb    $13, %r8d, %xmm3, %xmm3
    vpinsrb    $14, %r8d, %xmm3, %xmm3
    vpinsrb    $15, %r8d, %xmm3, %xmm3
    vinserti128    $1, %xmm3, %ymm2, %ymm2
    vpand    %ymm1, %ymm2, %ymm2
    .loc    1 59 16                         # mm.py:59:16
    vpmovzxbd    %xmm2, %ymm3            # ymm3 = xmm2[0],zero,zero,zero,xmm2[1],zero,zero,zero,xmm2[2],zero,zero,zero,xmm2[3],zero,zero,zero,xmm2[4],zero,zero,zero,xmm2[5],zero,zero,zero,xmm2[6],zero,zero,zero,xmm2[7],zero,zero,zero
    vpslld    $31, %ymm3, %ymm3
    vmovups    26832(%rsp), %ymm4              # 32-byte Reload
    vmaskmovps    %ymm4, %ymm3, 128(%r11,%rax,4)
    vpunpckhbw    %xmm2, %xmm2, %xmm3     # xmm3 = xmm2[8,8,9,9,10,10,11,11,12,12,13,13,14,14,15,15]
    vpmovzxwd    %xmm3, %ymm3            # ymm3 = xmm3[0],zero,xmm3[1],zero,xmm3[2],zero,xmm3[3],zero,xmm3[4],zero,xmm3[5],zero,xmm3[6],zero,xmm3[7],zero
    vpslld    $31, %ymm3, %ymm3
    vmovups    26864(%rsp), %ymm4              # 32-byte Reload
    vmaskmovps    %ymm4, %ymm3, 160(%r11,%rax,4)
    vextracti128    $1, %ymm2, %xmm2
    vpmovzxbd    %xmm2, %ymm3            # ymm3 = xmm2[0],zero,zero,zero,xmm2[1],zero,zero,zero,xmm2[2],zero,zero,zero,xmm2[3],zero,zero,zero,xmm2[4],zero,zero,zero,xmm2[5],zero,zero,zero,xmm2[6],zero,zero,zero,xmm2[7],zero,zero,zero
    vpslld    $31, %ymm3, %ymm3
    vmovups    26896(%rsp), %ymm4              # 32-byte Reload
    vmaskmovps    %ymm4, %ymm3, 192(%r11,%rax,4)
    vpunpckhbw    %xmm2, %xmm2, %xmm2     # xmm2 = xmm2[8,8,9,9,10,10,11,11,12,12,13,13,14,14,15,15]
    vpmovzxwd    %xmm2, %ymm2            # ymm2 = xmm2[0],zero,xmm2[1],zero,xmm2[2],zero,xmm2[3],zero,xmm2[4],zero,xmm2[5],zero,xmm2[6],zero,xmm2[7],zero
    vpslld    $31, %ymm2, %ymm2
    vmovups    26928(%rsp), %ymm3              # 32-byte Reload
    vmaskmovps    %ymm3, %ymm2, 224(%r11,%rax,4)
    movl    20384(%rsp), %r8d               # 4-byte Reload
    .loc    1 60 39                         # mm.py:60:39
    vmovd    %r8d, %xmm2
    vpinsrb    $1, %r8d, %xmm2, %xmm2
    vpinsrb    $2, %r8d, %xmm2, %xmm2
    vpinsrb    $3, %r8d, %xmm2, %xmm2
    vpinsrb    $4, %r8d, %xmm2, %xmm2
    vpinsrb    $5, %r8d, %xmm2, %xmm2
    vpinsrb    $6, %r8d, %xmm2, %xmm2
    vpinsrb    $7, %r8d, %xmm2, %xmm2
    vpinsrb    $8, %r8d, %xmm2, %xmm2
    vpinsrb    $9, %r8d, %xmm2, %xmm2
    vpinsrb    $10, %r8d, %xmm2, %xmm2
    vpinsrb    $11, %r8d, %xmm2, %xmm2
    vpinsrb    $12, %r8d, %xmm2, %xmm2
    vpinsrb    $13, %r8d, %xmm2, %xmm2
    vpinsrb    $14, %r8d, %xmm2, %xmm2
    vpinsrb    $15, %r8d, %xmm2, %xmm2
    vmovd    %r8d, %xmm3
    vpinsrb    $1, %r8d, %xmm3, %xmm3
    vpinsrb    $2, %r8d, %xmm3, %xmm3
    vpinsrb    $3, %r8d, %xmm3, %xmm3
    vpinsrb    $4, %r8d, %xmm3, %xmm3
    vpinsrb    $5, %r8d, %xmm3, %xmm3
    vpinsrb    $6, %r8d, %xmm3, %xmm3
    vpinsrb    $7, %r8d, %xmm3, %xmm3
    vpinsrb    $8, %r8d, %xmm3, %xmm3
    vpinsrb    $9, %r8d, %xmm3, %xmm3
    vpinsrb    $10, %r8d, %xmm3, %xmm3
    vpinsrb    $11, %r8d, %xmm3, %xmm3
    vpinsrb    $12, %r8d, %xmm3, %xmm3
    vpinsrb    $13, %r8d, %xmm3, %xmm3
    vpinsrb    $14, %r8d, %xmm3, %xmm3
    vpinsrb    $15, %r8d, %xmm3, %xmm3
    vinserti128    $1, %xmm3, %ymm2, %ymm2
    vpand    %ymm0, %ymm2, %ymm2
    .loc    1 59 16                         # mm.py:59:16
    vpmovzxbd    %xmm2, %ymm3            # ymm3 = xmm2[0],zero,zero,zero,xmm2[1],zero,zero,zero,xmm2[2],zero,zero,zero,xmm2[3],zero,zero,zero,xmm2[4],zero,zero,zero,xmm2[5],zero,zero,zero,xmm2[6],zero,zero,zero,xmm2[7],zero,zero,zero
    vpslld    $31, %ymm3, %ymm3
    movq    22400(%rsp), %r11               # 8-byte Reload
    vmovups    19296(%rsp), %ymm4              # 32-byte Reload
    vmaskmovps    %ymm4, %ymm3, (%r11,%rax,4)
    vpunpckhbw    %xmm2, %xmm2, %xmm3     # xmm3 = xmm2[8,8,9,9,10,10,11,11,12,12,13,13,14,14,15,15]
    vpmovzxwd    %xmm3, %ymm3            # ymm3 = xmm3[0],zero,xmm3[1],zero,xmm3[2],zero,xmm3[3],zero,xmm3[4],zero,xmm3[5],zero,xmm3[6],zero,xmm3[7],zero
    vpslld    $31, %ymm3, %ymm3
    vmovups    26960(%rsp), %ymm4              # 32-byte Reload
    vmaskmovps    %ymm4, %ymm3, 32(%r11,%rax,4)
    vextracti128    $1, %ymm2, %xmm2
    vpmovzxbd    %xmm2, %ymm3            # ymm3 = xmm2[0],zero,zero,zero,xmm2[1],zero,zero,zero,xmm2[2],zero,zero,zero,xmm2[3],zero,zero,zero,xmm2[4],zero,zero,zero,xmm2[5],zero,zero,zero,xmm2[6],zero,zero,zero,xmm2[7],zero,zero,zero
    vpslld    $31, %ymm3, %ymm3
    vmovups    26992(%rsp), %ymm4              # 32-byte Reload
    vmaskmovps    %ymm4, %ymm3, 64(%r11,%rax,4)
    vpunpckhbw    %xmm2, %xmm2, %xmm2     # xmm2 = xmm2[8,8,9,9,10,10,11,11,12,12,13,13,14,14,15,15]
    vpmovzxwd    %xmm2, %ymm2            # ymm2 = xmm2[0],zero,xmm2[1],zero,xmm2[2],zero,xmm2[3],zero,xmm2[4],zero,xmm2[5],zero,xmm2[6],zero,xmm2[7],zero
    vpslld    $31, %ymm2, %ymm2
    vmovups    27024(%rsp), %ymm3              # 32-byte Reload
    vmaskmovps    %ymm3, %ymm2, 96(%r11,%rax,4)
    .loc    1 60 39                         # mm.py:60:39
    vmovd    %r8d, %xmm2
    vpinsrb    $1, %r8d, %xmm2, %xmm2
    vpinsrb    $2, %r8d, %xmm2, %xmm2
    vpinsrb    $3, %r8d, %xmm2, %xmm2
    vpinsrb    $4, %r8d, %xmm2, %xmm2
    vpinsrb    $5, %r8d, %xmm2, %xmm2
    vpinsrb    $6, %r8d, %xmm2, %xmm2
    vpinsrb    $7, %r8d, %xmm2, %xmm2
    vpinsrb    $8, %r8d, %xmm2, %xmm2
    vpinsrb    $9, %r8d, %xmm2, %xmm2
    vpinsrb    $10, %r8d, %xmm2, %xmm2
    vpinsrb    $11, %r8d, %xmm2, %xmm2
    vpinsrb    $12, %r8d, %xmm2, %xmm2
    vpinsrb    $13, %r8d, %xmm2, %xmm2
    vpinsrb    $14, %r8d, %xmm2, %xmm2
    vpinsrb    $15, %r8d, %xmm2, %xmm2
    vmovd    %r8d, %xmm3
    vpinsrb    $1, %r8d, %xmm3, %xmm3
    vpinsrb    $2, %r8d, %xmm3, %xmm3
    vpinsrb    $3, %r8d, %xmm3, %xmm3
    vpinsrb    $4, %r8d, %xmm3, %xmm3
    vpinsrb    $5, %r8d, %xmm3, %xmm3
    vpinsrb    $6, %r8d, %xmm3, %xmm3
    vpinsrb    $7, %r8d, %xmm3, %xmm3
    vpinsrb    $8, %r8d, %xmm3, %xmm3
    vpinsrb    $9, %r8d, %xmm3, %xmm3
    vpinsrb    $10, %r8d, %xmm3, %xmm3
    vpinsrb    $11, %r8d, %xmm3, %xmm3
    vpinsrb    $12, %r8d, %xmm3, %xmm3
    vpinsrb    $13, %r8d, %xmm3, %xmm3
    vpinsrb    $14, %r8d, %xmm3, %xmm3
    vpinsrb    $15, %r8d, %xmm3, %xmm3
    vinserti128    $1, %xmm3, %ymm2, %ymm2
    vpand    %ymm1, %ymm2, %ymm2
    .loc    1 59 16                         # mm.py:59:16
    vpmovzxbd    %xmm2, %ymm3            # ymm3 = xmm2[0],zero,zero,zero,xmm2[1],zero,zero,zero,xmm2[2],zero,zero,zero,xmm2[3],zero,zero,zero,xmm2[4],zero,zero,zero,xmm2[5],zero,zero,zero,xmm2[6],zero,zero,zero,xmm2[7],zero,zero,zero
    vpslld    $31, %ymm3, %ymm3
    vmovups    27056(%rsp), %ymm4              # 32-byte Reload
    vmaskmovps    %ymm4, %ymm3, 128(%r11,%rax,4)
    vpunpckhbw    %xmm2, %xmm2, %xmm3     # xmm3 = xmm2[8,8,9,9,10,10,11,11,12,12,13,13,14,14,15,15]
    vpmovzxwd    %xmm3, %ymm3            # ymm3 = xmm3[0],zero,xmm3[1],zero,xmm3[2],zero,xmm3[3],zero,xmm3[4],zero,xmm3[5],zero,xmm3[6],zero,xmm3[7],zero
    vpslld    $31, %ymm3, %ymm3
    vmovups    27088(%rsp), %ymm4              # 32-byte Reload
    vmaskmovps    %ymm4, %ymm3, 160(%r11,%rax,4)
    vextracti128    $1, %ymm2, %xmm2
    vpmovzxbd    %xmm2, %ymm3            # ymm3 = xmm2[0],zero,zero,zero,xmm2[1],zero,zero,zero,xmm2[2],zero,zero,zero,xmm2[3],zero,zero,zero,xmm2[4],zero,zero,zero,xmm2[5],zero,zero,zero,xmm2[6],zero,zero,zero,xmm2[7],zero,zero,zero
